TN:
SF:/home/krillin/code/nsu/23203_knyazkov/lab1/src/ctors.cpp
FN:12,18,_ZN9HashTableD2Ev
FN:20,31,_ZN9HashTableC2ERKS_
FN:33,41,_ZN9HashTableC2Em
FN:43,52,_ZN9HashTableC2EOS_
FN:5,10,_ZN9HashTableC2Ev
FNDA:241,_ZN9HashTableD2Ev
FNDA:5,_ZN9HashTableC2ERKS_
FNDA:80,_ZN9HashTableC2Em
FNDA:10,_ZN9HashTableC2EOS_
FNDA:156,_ZN9HashTableC2Ev
FNF:5
FNH:5
DA:5,156
DA:6,156
DA:7,1716
DA:8,1560
DA:10,156
DA:12,241
DA:13,1971
DA:14,1730
DA:15,1675
DA:17,241
DA:18,241
DA:20,5
DA:21,5
DA:22,5
DA:24,55
DA:25,50
DA:26,50
DA:28,0
DA:31,5
DA:33,80
DA:34,80
DA:35,10
DA:37,70
DA:38,70
DA:39,220
DA:40,150
DA:41,70
DA:43,10
DA:44,10
DA:45,10
DA:46,10
DA:47,10
DA:49,10
DA:50,10
DA:51,10
DA:52,10
LF:36
LH:35
end_of_record
TN:
SF:/home/krillin/code/nsu/23203_knyazkov/lab1/src/hashtable.h
FN:14,16,_ZN5ValueeqERKS_
FN:18,18,_ZN5ValueneERKS_
FN:26,29,_ZN8HashNodeC2Ev
FN:31,34,_ZN8HashNodeC2ENSt7__cxx1112basic_stringIcSt11char_traitsIcESaIcEEE5Value
FN:36,36,_ZN8HashNodeD2Ev
FNDA:67,_ZN5ValueeqERKS_
FNDA:45,_ZN5ValueneERKS_
FNDA:1212,_ZN8HashNodeC2Ev
FNDA:79,_ZN8HashNodeC2ENSt7__cxx1112basic_stringIcSt11char_traitsIcESaIcEEE5Value
FNDA:1329,_ZN8HashNodeD2Ev
FNF:5
FNH:5
DA:14,67
DA:15,67
DA:18,45
DA:26,1212
DA:27,1212
DA:28,1212
DA:29,1212
DA:31,79
DA:32,79
DA:33,79
DA:34,79
DA:36,1329
LF:12
LH:12
end_of_record
TN:
SF:/home/krillin/code/nsu/23203_knyazkov/lab1/src/methods.cpp
FN:109,116,_ZNK9HashTable2atERKNSt7__cxx1112basic_stringIcSt11char_traitsIcESaIcEEE
FN:118,120,_ZN9HashTable2atERKNSt7__cxx1112basic_stringIcSt11char_traitsIcESaIcEEE
FN:122,122,_ZNK9HashTable8containsERKNSt7__cxx1112basic_stringIcSt11char_traitsIcESaIcEEE
FN:124,136,_ZN9HashTable5clearEv
FN:138,138,_ZNK9HashTable7getSizeEv
FN:139,139,_ZNK9HashTable11getCapacityEv
FN:141,141,_ZNK9HashTable5emptyEv
FN:143,160,_ZNK9HashTable4findERKNSt7__cxx1112basic_stringIcSt11char_traitsIcESaIcEEE
FN:15,17,_ZN9HashTable13getLoadFactorERKdS1_
FN:162,170,_ZN9HashTable4swapERS_
FN:21,44,_ZN9HashTable14rehashIfNeededEv
FN:48,65,_ZN9HashTable5eraseERKNSt7__cxx1112basic_stringIcSt11char_traitsIcESaIcEEE
FN:6,13,_ZNK9HashTable4hashERKNSt7__cxx1112basic_stringIcSt11char_traitsIcESaIcEEE
FN:69,80,_ZNK9HashTable13linearProbingEiNSt7__cxx1112basic_stringIcSt11char_traitsIcESaIcEEE
FN:85,107,_ZN9HashTable6insertERKNSt7__cxx1112basic_stringIcSt11char_traitsIcESaIcEEERK5Value
FNDA:3,_ZNK9HashTable2atERKNSt7__cxx1112basic_stringIcSt11char_traitsIcESaIcEEE
FNDA:3,_ZN9HashTable2atERKNSt7__cxx1112basic_stringIcSt11char_traitsIcESaIcEEE
FNDA:4,_ZNK9HashTable8containsERKNSt7__cxx1112basic_stringIcSt11char_traitsIcESaIcEEE
FNDA:3,_ZN9HashTable5clearEv
FNDA:21,_ZNK9HashTable7getSizeEv
FNDA:35,_ZNK9HashTable11getCapacityEv
FNDA:2,_ZNK9HashTable5emptyEv
FNDA:13,_ZNK9HashTable4findERKNSt7__cxx1112basic_stringIcSt11char_traitsIcESaIcEEE
FNDA:76,_ZN9HashTable13getLoadFactorERKdS1_
FNDA:1,_ZN9HashTable4swapERS_
FNDA:76,_ZN9HashTable14rehashIfNeededEv
FNDA:6,_ZN9HashTable5eraseERKNSt7__cxx1112basic_stringIcSt11char_traitsIcESaIcEEE
FNDA:134,_ZNK9HashTable4hashERKNSt7__cxx1112basic_stringIcSt11char_traitsIcESaIcEEE
FNDA:15,_ZNK9HashTable13linearProbingEiNSt7__cxx1112basic_stringIcSt11char_traitsIcESaIcEEE
FNDA:76,_ZN9HashTable6insertERKNSt7__cxx1112basic_stringIcSt11char_traitsIcESaIcEEERK5Value
FNF:15
FNH:15
DA:6,134
DA:7,134
DA:9,536
DA:10,402
DA:12,134
DA:15,76
DA:16,76
DA:21,76
DA:23,76
DA:24,76
DA:25,73
DA:27,3
DA:28,51
DA:29,51
DA:30,48
DA:32,27
DA:33,24
DA:34,24
DA:35,24
DA:36,24
DA:38,24
DA:40,24
DA:42,3
DA:43,3
DA:48,6
DA:49,6
DA:50,6
DA:51,6
DA:52,4
DA:54,2
DA:57,6
DA:58,2
DA:60,4
DA:61,4
DA:62,4
DA:63,4
DA:64,4
DA:69,15
DA:70,15
DA:71,15
DA:72,27
DA:73,17
DA:74,5
DA:76,12
DA:78,10
DA:85,76
DA:86,76
DA:87,76
DA:88,0
DA:90,76
DA:91,76
DA:94,86
DA:95,10
DA:96,66
DA:98,10
DA:100,76
DA:101,68
DA:102,68
DA:103,68
DA:104,68
DA:106,8
DA:109,3
DA:110,3
DA:112,3
DA:113,1
DA:115,2
DA:118,3
DA:119,3
DA:122,4
DA:124,3
DA:125,3
DA:126,0
DA:129,15
DA:130,12
DA:131,11
DA:132,11
DA:135,3
DA:138,21
DA:139,35
DA:141,2
DA:143,13
DA:144,13
DA:146,13
DA:147,8
DA:149,5
DA:150,0
DA:152,5
DA:153,29
DA:154,24
DA:155,0
DA:157,24
DA:159,5
DA:162,1
DA:164,1
DA:165,1
DA:166,1
DA:168,1
DA:169,1
DA:170,1
LF:99
LH:95
end_of_record
TN:
SF:/home/krillin/code/nsu/23203_knyazkov/lab1/src/operators.cpp
FN:41,60,_ZN9HashTableaSEOS_
FN:63,75,_ZN9HashTableixERKNSt7__cxx1112basic_stringIcSt11char_traitsIcESaIcEEE
FN:78,92,_ZeqRK9HashTableS1_
FN:8,35,_ZN9HashTableaSERKS_
FN:94,94,_ZneRK9HashTableS1_
FNDA:12,_ZN9HashTableaSEOS_
FNDA:45,_ZN9HashTableixERKNSt7__cxx1112basic_stringIcSt11char_traitsIcESaIcEEE
FNDA:15,_ZeqRK9HashTableS1_
FNDA:9,_ZN9HashTableaSERKS_
FNDA:6,_ZneRK9HashTableS1_
FNF:5
FNH:5
DA:8,9
DA:9,9
DA:10,3
DA:14,66
DA:15,60
DA:16,60
DA:18,6
DA:21,6
DA:22,6
DA:24,6
DA:26,66
DA:27,60
DA:28,60
DA:30,0
DA:34,6
DA:41,12
DA:42,12
DA:43,3
DA:45,99
DA:46,90
DA:47,90
DA:49,9
DA:51,9
DA:52,9
DA:53,9
DA:55,9
DA:56,9
DA:57,9
DA:59,9
DA:63,45
DA:64,45
DA:66,45
DA:67,39
DA:70,6
DA:71,6
DA:74,6
DA:78,15
DA:79,15
DA:80,6
DA:83,51
DA:84,45
DA:85,90
DA:86,45
DA:87,3
DA:91,6
DA:94,6
LF:46
LH:45
end_of_record
TN:
SF:/home/krillin/code/nsu/23203_knyazkov/lab1/test/src/ctors_tests.cc
FN:14,14,_ZN34ctors_tests_copy_cstor_test_1_Test8TestBodyEv
FN:14,14,_ZN34ctors_tests_copy_cstor_test_1_TestC2Ev
FN:14,14,_ZN34ctors_tests_copy_cstor_test_1_TestD0Ev
FN:14,14,_ZN34ctors_tests_copy_cstor_test_1_TestD2Ev
FN:23,23,_ZN34ctors_tests_copy_cstor_test_2_Test8TestBodyEv
FN:23,23,_ZN34ctors_tests_copy_cstor_test_2_TestC2Ev
FN:23,23,_ZN34ctors_tests_copy_cstor_test_2_TestD0Ev
FN:23,23,_ZN34ctors_tests_copy_cstor_test_2_TestD2Ev
FN:27,27,_ZN38ctors_tests_capacity_cstor_test_1_Test8TestBodyEv
FN:27,27,_ZN38ctors_tests_capacity_cstor_test_1_TestC2Ev
FN:27,27,_ZN38ctors_tests_capacity_cstor_test_1_TestD0Ev
FN:27,27,_ZN38ctors_tests_capacity_cstor_test_1_TestD2Ev
FN:35,35,_ZN38ctors_tests_capacity_cstor_test_2_Test8TestBodyEv
FN:35,35,_ZN38ctors_tests_capacity_cstor_test_2_TestC2Ev
FN:35,35,_ZN38ctors_tests_capacity_cstor_test_2_TestD0Ev
FN:35,35,_ZN38ctors_tests_capacity_cstor_test_2_TestD2Ev
FN:39,39,_ZN34ctors_tests_move_cstor_test_1_Test8TestBodyEv
FN:39,39,_ZN34ctors_tests_move_cstor_test_1_TestC2Ev
FN:39,39,_ZN34ctors_tests_move_cstor_test_1_TestD0Ev
FN:39,39,_ZN34ctors_tests_move_cstor_test_1_TestD2Ev
FN:52,70,_ZN34ctors_tests_move_cstor_test_2_Test8TestBodyEv
FN:52,70,_ZN34ctors_tests_move_cstor_test_2_TestC2Ev
FN:52,70,_ZN34ctors_tests_move_cstor_test_2_TestD0Ev
FN:52,70,_ZN34ctors_tests_move_cstor_test_2_TestD2Ev
FN:6,6,_ZN32ctors_tests_empty_ctor_test_Test8TestBodyEv
FN:6,6,_ZN32ctors_tests_empty_ctor_test_TestC2Ev
FN:6,6,_ZN32ctors_tests_empty_ctor_test_TestD0Ev
FN:6,6,_ZN32ctors_tests_empty_ctor_test_TestD2Ev
FNDA:5,_ZN34ctors_tests_copy_cstor_test_1_Test8TestBodyEv
FNDA:5,_ZN34ctors_tests_copy_cstor_test_1_TestC2Ev
FNDA:5,_ZN34ctors_tests_copy_cstor_test_1_TestD0Ev
FNDA:5,_ZN34ctors_tests_copy_cstor_test_1_TestD2Ev
FNDA:5,_ZN34ctors_tests_copy_cstor_test_2_Test8TestBodyEv
FNDA:5,_ZN34ctors_tests_copy_cstor_test_2_TestC2Ev
FNDA:5,_ZN34ctors_tests_copy_cstor_test_2_TestD0Ev
FNDA:5,_ZN34ctors_tests_copy_cstor_test_2_TestD2Ev
FNDA:5,_ZN38ctors_tests_capacity_cstor_test_1_Test8TestBodyEv
FNDA:5,_ZN38ctors_tests_capacity_cstor_test_1_TestC2Ev
FNDA:5,_ZN38ctors_tests_capacity_cstor_test_1_TestD0Ev
FNDA:5,_ZN38ctors_tests_capacity_cstor_test_1_TestD2Ev
FNDA:5,_ZN38ctors_tests_capacity_cstor_test_2_Test8TestBodyEv
FNDA:5,_ZN38ctors_tests_capacity_cstor_test_2_TestC2Ev
FNDA:5,_ZN38ctors_tests_capacity_cstor_test_2_TestD0Ev
FNDA:5,_ZN38ctors_tests_capacity_cstor_test_2_TestD2Ev
FNDA:5,_ZN34ctors_tests_move_cstor_test_1_Test8TestBodyEv
FNDA:5,_ZN34ctors_tests_move_cstor_test_1_TestC2Ev
FNDA:5,_ZN34ctors_tests_move_cstor_test_1_TestD0Ev
FNDA:5,_ZN34ctors_tests_move_cstor_test_1_TestD2Ev
FNDA:5,_ZN34ctors_tests_move_cstor_test_2_Test8TestBodyEv
FNDA:5,_ZN34ctors_tests_move_cstor_test_2_TestC2Ev
FNDA:5,_ZN34ctors_tests_move_cstor_test_2_TestD0Ev
FNDA:5,_ZN34ctors_tests_move_cstor_test_2_TestD2Ev
FNDA:5,_ZN32ctors_tests_empty_ctor_test_Test8TestBodyEv
FNDA:5,_ZN32ctors_tests_empty_ctor_test_TestC2Ev
FNDA:5,_ZN32ctors_tests_empty_ctor_test_TestD0Ev
FNDA:5,_ZN32ctors_tests_empty_ctor_test_TestD2Ev
FNF:28
FNH:28
DA:6,20
DA:7,5
DA:8,5
DA:9,10
DA:10,5
DA:11,5
DA:12,5
DA:14,20
DA:15,5
DA:16,5
DA:17,5
DA:18,5
DA:19,25
DA:20,20
DA:21,5
DA:23,20
DA:24,10
DA:27,20
DA:28,5
DA:29,5
DA:31,5
DA:32,5
DA:33,5
DA:35,20
DA:36,10
DA:37,5
DA:39,20
DA:40,5
DA:43,5
DA:45,5
DA:46,5
DA:48,5
DA:49,5
DA:50,5
DA:52,20
DA:53,5
DA:54,5
DA:55,5
DA:56,10
DA:57,5
DA:59,5
DA:61,5
DA:62,10
DA:63,10
DA:65,10
DA:66,10
DA:68,5
DA:69,5
DA:70,5
LF:49
LH:49
end_of_record
TN:
SF:/home/krillin/code/nsu/23203_knyazkov/lab1/test/src/methods_tests.cc
FN:101,101,_ZN40methods_tests_linear_probing_test_3_Test8TestBodyEv
FN:101,101,_ZN40methods_tests_linear_probing_test_3_TestC2Ev
FN:101,101,_ZN40methods_tests_linear_probing_test_3_TestD0Ev
FN:101,101,_ZN40methods_tests_linear_probing_test_3_TestD2Ev
FN:117,117,_ZN40methods_tests_linear_probing_test_4_Test8TestBodyEv
FN:117,117,_ZN40methods_tests_linear_probing_test_4_TestC2Ev
FN:117,117,_ZN40methods_tests_linear_probing_test_4_TestD0Ev
FN:117,117,_ZN40methods_tests_linear_probing_test_4_TestD2Ev
FN:132,147,_ZN40methods_tests_linear_probing_test_5_Test8TestBodyEv
FN:132,147,_ZN40methods_tests_linear_probing_test_5_TestC2Ev
FN:132,147,_ZN40methods_tests_linear_probing_test_5_TestD0Ev
FN:132,147,_ZN40methods_tests_linear_probing_test_5_TestD2Ev
FN:14,14,_ZN32methods_tests_insert_test_2_Test8TestBodyEv
FN:14,14,_ZN32methods_tests_insert_test_2_TestC2Ev
FN:14,14,_ZN32methods_tests_insert_test_2_TestD0Ev
FN:14,14,_ZN32methods_tests_insert_test_2_TestD2Ev
FN:149,159,_ZN31methods_tests_clear_test_1_Test8TestBodyEv
FN:149,159,_ZN31methods_tests_clear_test_1_TestC2Ev
FN:149,159,_ZN31methods_tests_clear_test_1_TestD0Ev
FN:149,159,_ZN31methods_tests_clear_test_1_TestD2Ev
FN:161,161,_ZN31methods_tests_clear_test_2_Test8TestBodyEv
FN:161,161,_ZN31methods_tests_clear_test_2_TestC2Ev
FN:161,161,_ZN31methods_tests_clear_test_2_TestD0Ev
FN:161,161,_ZN31methods_tests_clear_test_2_TestD2Ev
FN:168,178,_ZN28methods_tests_at_test_1_Test8TestBodyEv
FN:168,178,_ZN28methods_tests_at_test_1_TestC2Ev
FN:168,178,_ZN28methods_tests_at_test_1_TestD0Ev
FN:168,178,_ZN28methods_tests_at_test_1_TestD2Ev
FN:180,187,_ZN28methods_tests_at_test_2_Test8TestBodyEv
FN:180,187,_ZN28methods_tests_at_test_2_TestC2Ev
FN:180,187,_ZN28methods_tests_at_test_2_TestD0Ev
FN:180,187,_ZN28methods_tests_at_test_2_TestD2Ev
FN:189,189,_ZN30methods_tests_swap_test_1_Test8TestBodyEv
FN:189,189,_ZN30methods_tests_swap_test_1_TestC2Ev
FN:189,189,_ZN30methods_tests_swap_test_1_TestD0Ev
FN:189,189,_ZN30methods_tests_swap_test_1_TestD2Ev
FN:23,23,_ZN32methods_tests_insert_test_3_Test8TestBodyEv
FN:23,23,_ZN32methods_tests_insert_test_3_TestC2Ev
FN:23,23,_ZN32methods_tests_insert_test_3_TestD0Ev
FN:23,23,_ZN32methods_tests_insert_test_3_TestD2Ev
FN:30,30,_ZN32methods_tests_insert_test_4_Test8TestBodyEv
FN:30,30,_ZN32methods_tests_insert_test_4_TestC2Ev
FN:30,30,_ZN32methods_tests_insert_test_4_TestD0Ev
FN:30,30,_ZN32methods_tests_insert_test_4_TestD2Ev
FN:41,41,_ZN35methods_tests_rehashing_test_1_Test8TestBodyEv
FN:41,41,_ZN35methods_tests_rehashing_test_1_TestC2Ev
FN:41,41,_ZN35methods_tests_rehashing_test_1_TestD0Ev
FN:41,41,_ZN35methods_tests_rehashing_test_1_TestD2Ev
FN:50,50,_ZN31methods_tests_erase_test_1_Test8TestBodyEv
FN:50,50,_ZN31methods_tests_erase_test_1_TestC2Ev
FN:50,50,_ZN31methods_tests_erase_test_1_TestD0Ev
FN:50,50,_ZN31methods_tests_erase_test_1_TestD2Ev
FN:56,56,_ZN31methods_tests_erase_test_2_Test8TestBodyEv
FN:56,56,_ZN31methods_tests_erase_test_2_TestC2Ev
FN:56,56,_ZN31methods_tests_erase_test_2_TestD0Ev
FN:56,56,_ZN31methods_tests_erase_test_2_TestD2Ev
FN:6,6,_ZN32methods_tests_insert_test_1_Test8TestBodyEv
FN:6,6,_ZN32methods_tests_insert_test_1_TestC2Ev
FN:6,6,_ZN32methods_tests_insert_test_1_TestD0Ev
FN:6,6,_ZN32methods_tests_insert_test_1_TestD2Ev
FN:63,63,_ZN31methods_tests_erase_test_3_Test8TestBodyEv
FN:63,63,_ZN31methods_tests_erase_test_3_TestC2Ev
FN:63,63,_ZN31methods_tests_erase_test_3_TestD0Ev
FN:63,63,_ZN31methods_tests_erase_test_3_TestD2Ev
FN:70,70,_ZN31methods_tests_erase_test_4_Test8TestBodyEv
FN:70,70,_ZN31methods_tests_erase_test_4_TestC2Ev
FN:70,70,_ZN31methods_tests_erase_test_4_TestD0Ev
FN:70,70,_ZN31methods_tests_erase_test_4_TestD2Ev
FN:76,81,_ZN31methods_tests_erase_test_5_Test8TestBodyEv
FN:76,81,_ZN31methods_tests_erase_test_5_TestC2Ev
FN:76,81,_ZN31methods_tests_erase_test_5_TestD0Ev
FN:76,81,_ZN31methods_tests_erase_test_5_TestD2Ev
FN:83,83,_ZN40methods_tests_linear_probing_test_1_Test8TestBodyEv
FN:83,83,_ZN40methods_tests_linear_probing_test_1_TestC2Ev
FN:83,83,_ZN40methods_tests_linear_probing_test_1_TestD0Ev
FN:83,83,_ZN40methods_tests_linear_probing_test_1_TestD2Ev
FN:90,90,_ZN40methods_tests_linear_probing_test_2_Test8TestBodyEv
FN:90,90,_ZN40methods_tests_linear_probing_test_2_TestC2Ev
FN:90,90,_ZN40methods_tests_linear_probing_test_2_TestD0Ev
FN:90,90,_ZN40methods_tests_linear_probing_test_2_TestD2Ev
FNDA:1,_ZN40methods_tests_linear_probing_test_3_Test8TestBodyEv
FNDA:1,_ZN40methods_tests_linear_probing_test_3_TestC2Ev
FNDA:1,_ZN40methods_tests_linear_probing_test_3_TestD0Ev
FNDA:1,_ZN40methods_tests_linear_probing_test_3_TestD2Ev
FNDA:1,_ZN40methods_tests_linear_probing_test_4_Test8TestBodyEv
FNDA:1,_ZN40methods_tests_linear_probing_test_4_TestC2Ev
FNDA:1,_ZN40methods_tests_linear_probing_test_4_TestD0Ev
FNDA:1,_ZN40methods_tests_linear_probing_test_4_TestD2Ev
FNDA:1,_ZN40methods_tests_linear_probing_test_5_Test8TestBodyEv
FNDA:1,_ZN40methods_tests_linear_probing_test_5_TestC2Ev
FNDA:1,_ZN40methods_tests_linear_probing_test_5_TestD0Ev
FNDA:1,_ZN40methods_tests_linear_probing_test_5_TestD2Ev
FNDA:1,_ZN32methods_tests_insert_test_2_Test8TestBodyEv
FNDA:1,_ZN32methods_tests_insert_test_2_TestC2Ev
FNDA:1,_ZN32methods_tests_insert_test_2_TestD0Ev
FNDA:1,_ZN32methods_tests_insert_test_2_TestD2Ev
FNDA:1,_ZN31methods_tests_clear_test_1_Test8TestBodyEv
FNDA:1,_ZN31methods_tests_clear_test_1_TestC2Ev
FNDA:1,_ZN31methods_tests_clear_test_1_TestD0Ev
FNDA:1,_ZN31methods_tests_clear_test_1_TestD2Ev
FNDA:1,_ZN31methods_tests_clear_test_2_Test8TestBodyEv
FNDA:1,_ZN31methods_tests_clear_test_2_TestC2Ev
FNDA:1,_ZN31methods_tests_clear_test_2_TestD0Ev
FNDA:1,_ZN31methods_tests_clear_test_2_TestD2Ev
FNDA:1,_ZN28methods_tests_at_test_1_Test8TestBodyEv
FNDA:1,_ZN28methods_tests_at_test_1_TestC2Ev
FNDA:1,_ZN28methods_tests_at_test_1_TestD0Ev
FNDA:1,_ZN28methods_tests_at_test_1_TestD2Ev
FNDA:1,_ZN28methods_tests_at_test_2_Test8TestBodyEv
FNDA:1,_ZN28methods_tests_at_test_2_TestC2Ev
FNDA:1,_ZN28methods_tests_at_test_2_TestD0Ev
FNDA:1,_ZN28methods_tests_at_test_2_TestD2Ev
FNDA:1,_ZN30methods_tests_swap_test_1_Test8TestBodyEv
FNDA:1,_ZN30methods_tests_swap_test_1_TestC2Ev
FNDA:1,_ZN30methods_tests_swap_test_1_TestD0Ev
FNDA:1,_ZN30methods_tests_swap_test_1_TestD2Ev
FNDA:1,_ZN32methods_tests_insert_test_3_Test8TestBodyEv
FNDA:1,_ZN32methods_tests_insert_test_3_TestC2Ev
FNDA:1,_ZN32methods_tests_insert_test_3_TestD0Ev
FNDA:1,_ZN32methods_tests_insert_test_3_TestD2Ev
FNDA:1,_ZN32methods_tests_insert_test_4_Test8TestBodyEv
FNDA:1,_ZN32methods_tests_insert_test_4_TestC2Ev
FNDA:1,_ZN32methods_tests_insert_test_4_TestD0Ev
FNDA:1,_ZN32methods_tests_insert_test_4_TestD2Ev
FNDA:1,_ZN35methods_tests_rehashing_test_1_Test8TestBodyEv
FNDA:1,_ZN35methods_tests_rehashing_test_1_TestC2Ev
FNDA:1,_ZN35methods_tests_rehashing_test_1_TestD0Ev
FNDA:1,_ZN35methods_tests_rehashing_test_1_TestD2Ev
FNDA:1,_ZN31methods_tests_erase_test_1_Test8TestBodyEv
FNDA:1,_ZN31methods_tests_erase_test_1_TestC2Ev
FNDA:1,_ZN31methods_tests_erase_test_1_TestD0Ev
FNDA:1,_ZN31methods_tests_erase_test_1_TestD2Ev
FNDA:1,_ZN31methods_tests_erase_test_2_Test8TestBodyEv
FNDA:1,_ZN31methods_tests_erase_test_2_TestC2Ev
FNDA:1,_ZN31methods_tests_erase_test_2_TestD0Ev
FNDA:1,_ZN31methods_tests_erase_test_2_TestD2Ev
FNDA:1,_ZN32methods_tests_insert_test_1_Test8TestBodyEv
FNDA:1,_ZN32methods_tests_insert_test_1_TestC2Ev
FNDA:1,_ZN32methods_tests_insert_test_1_TestD0Ev
FNDA:1,_ZN32methods_tests_insert_test_1_TestD2Ev
FNDA:1,_ZN31methods_tests_erase_test_3_Test8TestBodyEv
FNDA:1,_ZN31methods_tests_erase_test_3_TestC2Ev
FNDA:1,_ZN31methods_tests_erase_test_3_TestD0Ev
FNDA:1,_ZN31methods_tests_erase_test_3_TestD2Ev
FNDA:1,_ZN31methods_tests_erase_test_4_Test8TestBodyEv
FNDA:1,_ZN31methods_tests_erase_test_4_TestC2Ev
FNDA:1,_ZN31methods_tests_erase_test_4_TestD0Ev
FNDA:1,_ZN31methods_tests_erase_test_4_TestD2Ev
FNDA:1,_ZN31methods_tests_erase_test_5_Test8TestBodyEv
FNDA:1,_ZN31methods_tests_erase_test_5_TestC2Ev
FNDA:1,_ZN31methods_tests_erase_test_5_TestD0Ev
FNDA:1,_ZN31methods_tests_erase_test_5_TestD2Ev
FNDA:1,_ZN40methods_tests_linear_probing_test_1_Test8TestBodyEv
FNDA:1,_ZN40methods_tests_linear_probing_test_1_TestC2Ev
FNDA:1,_ZN40methods_tests_linear_probing_test_1_TestD0Ev
FNDA:1,_ZN40methods_tests_linear_probing_test_1_TestD2Ev
FNDA:1,_ZN40methods_tests_linear_probing_test_2_Test8TestBodyEv
FNDA:1,_ZN40methods_tests_linear_probing_test_2_TestC2Ev
FNDA:1,_ZN40methods_tests_linear_probing_test_2_TestD0Ev
FNDA:1,_ZN40methods_tests_linear_probing_test_2_TestD2Ev
FNF:80
FNH:80
DA:6,4
DA:7,1
DA:8,1
DA:9,1
DA:10,1
DA:11,1
DA:12,1
DA:14,4
DA:15,1
DA:16,1
DA:17,1
DA:18,1
DA:20,1
DA:21,1
DA:23,4
DA:24,1
DA:25,2
DA:26,1
DA:27,3
DA:28,1
DA:30,4
DA:31,1
DA:32,1
DA:34,11
DA:35,10
DA:36,10
DA:37,10
DA:38,1
DA:39,1
DA:41,4
DA:42,1
DA:43,2
DA:44,2
DA:45,2
DA:46,2
DA:47,1
DA:48,1
DA:50,4
DA:51,1
DA:52,3
DA:53,2
DA:54,1
DA:56,4
DA:57,1
DA:58,3
DA:59,1
DA:60,1
DA:61,1
DA:63,4
DA:64,1
DA:65,3
DA:66,2
DA:67,2
DA:68,1
DA:70,4
DA:71,1
DA:72,3
DA:73,2
DA:74,1
DA:76,4
DA:77,1
DA:78,3
DA:79,2
DA:80,2
DA:81,1
DA:83,4
DA:84,1
DA:85,1
DA:86,1
DA:87,1
DA:88,1
DA:90,4
DA:91,1
DA:92,1
DA:93,1
DA:94,1
DA:96,1
DA:97,1
DA:98,1
DA:99,1
DA:101,4
DA:102,1
DA:104,1
DA:105,1
DA:106,1
DA:107,1
DA:109,1
DA:110,1
DA:112,1
DA:113,1
DA:114,1
DA:115,1
DA:117,4
DA:118,1
DA:119,21
DA:120,20
DA:121,20
DA:122,20
DA:123,20
DA:126,1
DA:127,1
DA:128,1
DA:129,1
DA:130,1
DA:132,4
DA:133,1
DA:135,2
DA:136,2
DA:137,1
DA:139,1
DA:140,1
DA:141,1
DA:144,1
DA:145,1
DA:146,1
DA:147,1
DA:149,4
DA:150,1
DA:151,2
DA:152,2
DA:154,1
DA:156,1
DA:158,1
DA:159,1
DA:161,4
DA:162,1
DA:163,1
DA:165,1
DA:166,1
DA:168,4
DA:169,1
DA:170,1
DA:171,1
DA:173,2
DA:174,2
DA:176,2
DA:177,2
DA:178,1
DA:180,4
DA:181,1
DA:182,1
DA:184,1
DA:186,3
DA:187,1
DA:189,4
DA:190,1
DA:191,1
DA:192,1
DA:193,1
DA:194,1
DA:195,2
DA:196,1
DA:198,1
DA:199,1
DA:200,1
DA:201,2
DA:202,1
LF:157
LH:157
end_of_record
TN:
SF:/home/krillin/code/nsu/23203_knyazkov/lab1/test/src/operators_tests.cc
FN:100,100,_ZN35operators_tests_isEqual_test_1_Test8TestBodyEv
FN:100,100,_ZN35operators_tests_isEqual_test_1_TestC2Ev
FN:100,100,_ZN35operators_tests_isEqual_test_1_TestD0Ev
FN:100,100,_ZN35operators_tests_isEqual_test_1_TestD2Ev
FN:109,109,_ZN35operators_tests_isEqual_test_2_Test8TestBodyEv
FN:109,109,_ZN35operators_tests_isEqual_test_2_TestC2Ev
FN:109,109,_ZN35operators_tests_isEqual_test_2_TestD0Ev
FN:109,109,_ZN35operators_tests_isEqual_test_2_TestD2Ev
FN:118,124,_ZN35operators_tests_isEqual_test_3_Test8TestBodyEv
FN:118,124,_ZN35operators_tests_isEqual_test_3_TestC2Ev
FN:118,124,_ZN35operators_tests_isEqual_test_3_TestD0Ev
FN:118,124,_ZN35operators_tests_isEqual_test_3_TestD2Ev
FN:12,12,_ZN36operators_tests_brackets_test_2_Test8TestBodyEv
FN:12,12,_ZN36operators_tests_brackets_test_2_TestC2Ev
FN:12,12,_ZN36operators_tests_brackets_test_2_TestD0Ev
FN:12,12,_ZN36operators_tests_brackets_test_2_TestD2Ev
FN:126,133,_ZN38operators_tests_isNotEqual_test_1_Test8TestBodyEv
FN:126,133,_ZN38operators_tests_isNotEqual_test_1_TestC2Ev
FN:126,133,_ZN38operators_tests_isNotEqual_test_1_TestD0Ev
FN:126,133,_ZN38operators_tests_isNotEqual_test_1_TestD2Ev
FN:18,18,_ZN43operators_tests_copy_assignment_test_1_Test8TestBodyEv
FN:18,18,_ZN43operators_tests_copy_assignment_test_1_TestC2Ev
FN:18,18,_ZN43operators_tests_copy_assignment_test_1_TestD0Ev
FN:18,18,_ZN43operators_tests_copy_assignment_test_1_TestD2Ev
FN:37,37,_ZN43operators_tests_copy_assignment_test_2_Test8TestBodyEv
FN:37,37,_ZN43operators_tests_copy_assignment_test_2_TestC2Ev
FN:37,37,_ZN43operators_tests_copy_assignment_test_2_TestD0Ev
FN:37,37,_ZN43operators_tests_copy_assignment_test_2_TestD2Ev
FN:43,43,_ZN43operators_tests_copy_assignment_test_3_Test8TestBodyEv
FN:43,43,_ZN43operators_tests_copy_assignment_test_3_TestC2Ev
FN:43,43,_ZN43operators_tests_copy_assignment_test_3_TestD0Ev
FN:43,43,_ZN43operators_tests_copy_assignment_test_3_TestD2Ev
FN:5,5,_ZN36operators_tests_brackets_test_1_Test8TestBodyEv
FN:5,5,_ZN36operators_tests_brackets_test_1_TestC2Ev
FN:5,5,_ZN36operators_tests_brackets_test_1_TestD0Ev
FN:5,5,_ZN36operators_tests_brackets_test_1_TestD2Ev
FN:58,58,_ZN43operators_tests_move_assignment_test_1_Test8TestBodyEv
FN:58,58,_ZN43operators_tests_move_assignment_test_1_TestC2Ev
FN:58,58,_ZN43operators_tests_move_assignment_test_1_TestD0Ev
FN:58,58,_ZN43operators_tests_move_assignment_test_1_TestD2Ev
FN:67,67,_ZN43operators_tests_move_assignment_test_2_Test8TestBodyEv
FN:67,67,_ZN43operators_tests_move_assignment_test_2_TestC2Ev
FN:67,67,_ZN43operators_tests_move_assignment_test_2_TestD0Ev
FN:67,67,_ZN43operators_tests_move_assignment_test_2_TestD2Ev
FN:79,79,_ZN43operators_tests_move_assignment_test_3_Test8TestBodyEv
FN:79,79,_ZN43operators_tests_move_assignment_test_3_TestC2Ev
FN:79,79,_ZN43operators_tests_move_assignment_test_3_TestD0Ev
FN:79,79,_ZN43operators_tests_move_assignment_test_3_TestD2Ev
FN:91,91,_ZN43operators_tests_move_assignment_test_4_Test8TestBodyEv
FN:91,91,_ZN43operators_tests_move_assignment_test_4_TestC2Ev
FN:91,91,_ZN43operators_tests_move_assignment_test_4_TestD0Ev
FN:91,91,_ZN43operators_tests_move_assignment_test_4_TestD2Ev
FNDA:3,_ZN35operators_tests_isEqual_test_1_Test8TestBodyEv
FNDA:3,_ZN35operators_tests_isEqual_test_1_TestC2Ev
FNDA:3,_ZN35operators_tests_isEqual_test_1_TestD0Ev
FNDA:3,_ZN35operators_tests_isEqual_test_1_TestD2Ev
FNDA:3,_ZN35operators_tests_isEqual_test_2_Test8TestBodyEv
FNDA:3,_ZN35operators_tests_isEqual_test_2_TestC2Ev
FNDA:3,_ZN35operators_tests_isEqual_test_2_TestD0Ev
FNDA:3,_ZN35operators_tests_isEqual_test_2_TestD2Ev
FNDA:3,_ZN35operators_tests_isEqual_test_3_Test8TestBodyEv
FNDA:3,_ZN35operators_tests_isEqual_test_3_TestC2Ev
FNDA:3,_ZN35operators_tests_isEqual_test_3_TestD0Ev
FNDA:3,_ZN35operators_tests_isEqual_test_3_TestD2Ev
FNDA:3,_ZN36operators_tests_brackets_test_2_Test8TestBodyEv
FNDA:3,_ZN36operators_tests_brackets_test_2_TestC2Ev
FNDA:3,_ZN36operators_tests_brackets_test_2_TestD0Ev
FNDA:3,_ZN36operators_tests_brackets_test_2_TestD2Ev
FNDA:3,_ZN38operators_tests_isNotEqual_test_1_Test8TestBodyEv
FNDA:3,_ZN38operators_tests_isNotEqual_test_1_TestC2Ev
FNDA:3,_ZN38operators_tests_isNotEqual_test_1_TestD0Ev
FNDA:3,_ZN38operators_tests_isNotEqual_test_1_TestD2Ev
FNDA:3,_ZN43operators_tests_copy_assignment_test_1_Test8TestBodyEv
FNDA:3,_ZN43operators_tests_copy_assignment_test_1_TestC2Ev
FNDA:3,_ZN43operators_tests_copy_assignment_test_1_TestD0Ev
FNDA:3,_ZN43operators_tests_copy_assignment_test_1_TestD2Ev
FNDA:3,_ZN43operators_tests_copy_assignment_test_2_Test8TestBodyEv
FNDA:3,_ZN43operators_tests_copy_assignment_test_2_TestC2Ev
FNDA:3,_ZN43operators_tests_copy_assignment_test_2_TestD0Ev
FNDA:3,_ZN43operators_tests_copy_assignment_test_2_TestD2Ev
FNDA:3,_ZN43operators_tests_copy_assignment_test_3_Test8TestBodyEv
FNDA:3,_ZN43operators_tests_copy_assignment_test_3_TestC2Ev
FNDA:3,_ZN43operators_tests_copy_assignment_test_3_TestD0Ev
FNDA:3,_ZN43operators_tests_copy_assignment_test_3_TestD2Ev
FNDA:3,_ZN36operators_tests_brackets_test_1_Test8TestBodyEv
FNDA:3,_ZN36operators_tests_brackets_test_1_TestC2Ev
FNDA:3,_ZN36operators_tests_brackets_test_1_TestD0Ev
FNDA:3,_ZN36operators_tests_brackets_test_1_TestD2Ev
FNDA:3,_ZN43operators_tests_move_assignment_test_1_Test8TestBodyEv
FNDA:3,_ZN43operators_tests_move_assignment_test_1_TestC2Ev
FNDA:3,_ZN43operators_tests_move_assignment_test_1_TestD0Ev
FNDA:3,_ZN43operators_tests_move_assignment_test_1_TestD2Ev
FNDA:3,_ZN43operators_tests_move_assignment_test_2_Test8TestBodyEv
FNDA:3,_ZN43operators_tests_move_assignment_test_2_TestC2Ev
FNDA:3,_ZN43operators_tests_move_assignment_test_2_TestD0Ev
FNDA:3,_ZN43operators_tests_move_assignment_test_2_TestD2Ev
FNDA:3,_ZN43operators_tests_move_assignment_test_3_Test8TestBodyEv
FNDA:3,_ZN43operators_tests_move_assignment_test_3_TestC2Ev
FNDA:3,_ZN43operators_tests_move_assignment_test_3_TestD0Ev
FNDA:3,_ZN43operators_tests_move_assignment_test_3_TestD2Ev
FNDA:3,_ZN43operators_tests_move_assignment_test_4_Test8TestBodyEv
FNDA:3,_ZN43operators_tests_move_assignment_test_4_TestC2Ev
FNDA:3,_ZN43operators_tests_move_assignment_test_4_TestD0Ev
FNDA:3,_ZN43operators_tests_move_assignment_test_4_TestD2Ev
FNF:52
FNH:52
DA:5,12
DA:6,3
DA:7,3
DA:8,6
DA:9,6
DA:10,3
DA:12,12
DA:13,3
DA:14,3
DA:15,6
DA:16,3
DA:18,12
DA:19,3
DA:20,3
DA:21,3
DA:22,3
DA:24,6
DA:25,3
DA:27,3
DA:28,3
DA:30,3
DA:32,9
DA:33,6
DA:34,6
DA:35,3
DA:37,12
DA:38,3
DA:39,3
DA:40,3
DA:41,3
DA:43,12
DA:44,3
DA:45,3
DA:47,6
DA:48,6
DA:50,3
DA:52,3
DA:53,3
DA:54,6
DA:55,6
DA:56,3
DA:58,12
DA:59,3
DA:60,3
DA:61,3
DA:62,3
DA:63,3
DA:64,3
DA:65,3
DA:67,12
DA:68,3
DA:69,3
DA:70,6
DA:71,3
DA:72,3
DA:73,3
DA:75,3
DA:76,3
DA:77,3
DA:79,12
DA:80,3
DA:81,3
DA:82,6
DA:83,3
DA:84,3
DA:85,3
DA:87,3
DA:88,3
DA:89,3
DA:91,12
DA:92,3
DA:93,3
DA:94,6
DA:96,3
DA:97,3
DA:98,3
DA:100,12
DA:101,3
DA:102,3
DA:104,6
DA:105,6
DA:106,3
DA:107,3
DA:109,12
DA:110,3
DA:111,3
DA:113,6
DA:114,6
DA:115,3
DA:116,3
DA:118,12
DA:119,3
DA:120,3
DA:121,6
DA:123,3
DA:124,3
DA:126,12
DA:127,3
DA:128,3
DA:129,6
DA:131,3
DA:132,3
DA:133,3
LF:103
LH:103
end_of_record
TN:
SF:/home/krillin/code/nsu/23203_knyazkov/lab1/test/src/test.cc
FN:73,76,main
FNDA:5,main
FNF:1
FNH:1
DA:73,5
DA:74,5
DA:75,5
LF:3
LH:3
end_of_record
TN:
SF:/usr/include/c++/14/bits/alloc_traits.h
FNF:0
FNH:0
DA:584,41
LF:1
LH:1
end_of_record
TN:
SF:/usr/include/c++/14/bits/allocator.h
FNF:0
FNH:0
DA:161,166
DA:166,41
DA:182,208
LF:3
LH:3
end_of_record
TN:
SF:/usr/include/c++/14/bits/basic_string.h
FN:3573,3586,_ZSt12__str_concatINSt7__cxx1112basic_stringIcSt11char_traitsIcESaIcEEEET_PKNS6_10value_typeENS6_9size_typeES9_SA_RKNS6_14allocator_typeE
FN:3616,3624,_ZStplIcSt11char_traitsIcESaIcEENSt7__cxx1112basic_stringIT_T0_T1_EEPKS5_RKS8_
FN:3719,3721,_ZStplIcSt11char_traitsIcESaIcEENSt7__cxx1112basic_stringIT_T0_T1_EEPKS5_OS8_
FN:3755,3761,_ZSteqIcSt11char_traitsIcESaIcEEbRKNSt7__cxx1112basic_stringIT_T0_T1_EESA_
FN:3833,3836,_ZStneIcSt11char_traitsIcESaIcEEbRKNSt7__cxx1112basic_stringIT_T0_T1_EESA_
FN:4240,4255,_ZNSt7__cxx119to_stringEi
FN:4249,4253,_ZZNSt7__cxx119to_stringEiENKUlPcmE_clES0_m
FN:646,655,_ZNSt7__cxx1112basic_stringIcSt11char_traitsIcESaIcEEC2IS3_EEPKcRKS3_
FNDA:41,_ZSt12__str_concatINSt7__cxx1112basic_stringIcSt11char_traitsIcESaIcEEEET_PKNS6_10value_typeENS6_9size_typeES9_SA_RKNS6_14allocator_typeE
FNDA:1,_ZStplIcSt11char_traitsIcESaIcEENSt7__cxx1112basic_stringIT_T0_T1_EEPKS5_RKS8_
FNDA:20,_ZStplIcSt11char_traitsIcESaIcEENSt7__cxx1112basic_stringIT_T0_T1_EEPKS5_OS8_
FNDA:390,_ZSteqIcSt11char_traitsIcESaIcEEbRKNSt7__cxx1112basic_stringIT_T0_T1_EESA_
FNDA:45,_ZStneIcSt11char_traitsIcESaIcEEbRKNSt7__cxx1112basic_stringIT_T0_T1_EESA_
FNDA:30,_ZNSt7__cxx119to_stringEi
FNDA:30,_ZZNSt7__cxx119to_stringEiENKUlPcmE_clES0_m
FNDA:610,_ZNSt7__cxx1112basic_stringIcSt11char_traitsIcESaIcEEC2IS3_EEPKcRKS3_
FNF:8
FNH:8
DA:360,449
DA:646,610
DA:647,610
DA:650,610
DA:651,0
DA:653,610
DA:654,610
DA:655,610
DA:3573,41
DA:3581,41
DA:3582,41
DA:3583,41
DA:3584,41
DA:3585,41
DA:3586,0
DA:3616,1
DA:3623,2
DA:3719,20
DA:3721,20
DA:3755,390
DA:3759,390
DA:3760,390
DA:3833,45
DA:3836,45
DA:4240,30
DA:4245,30
DA:4246,30
DA:4247,30
DA:4248,30
DA:4249,30
DA:4250,30
DA:4251,30
DA:4252,30
DA:4254,30
LF:34
LH:32
end_of_record
TN:
SF:/usr/include/c++/14/bits/basic_string.tcc
FN:221,252,_ZNSt7__cxx1112basic_stringIcSt11char_traitsIcESaIcEE12_M_constructIPKcEEvT_S8_St20forward_iterator_tag
FN:221,252,_ZNSt7__cxx1112basic_stringIcSt11char_traitsIcESaIcEE12_M_constructIPcEEvT_S7_St20forward_iterator_tag
FN:239,239,_ZZNSt7__cxx1112basic_stringIcSt11char_traitsIcESaIcEE12_M_constructIPKcEEvT_S8_St20forward_iterator_tagEN6_GuardC2EPS4_
FN:239,239,_ZZNSt7__cxx1112basic_stringIcSt11char_traitsIcESaIcEE12_M_constructIPcEEvT_S7_St20forward_iterator_tagEN6_GuardC2EPS4_
FN:242,242,_ZZNSt7__cxx1112basic_stringIcSt11char_traitsIcESaIcEE12_M_constructIPKcEEvT_S8_St20forward_iterator_tagEN6_GuardD2Ev
FN:242,242,_ZZNSt7__cxx1112basic_stringIcSt11char_traitsIcESaIcEE12_M_constructIPcEEvT_S7_St20forward_iterator_tagEN6_GuardD2Ev
FN:583,613,_ZNSt7__cxx1112basic_stringIcSt11char_traitsIcESaIcEE22__resize_and_overwriteIZNS_9to_stringEiEUlPcmE_EEvmT_
FN:597,597,_ZZNSt7__cxx1112basic_stringIcSt11char_traitsIcESaIcEE22__resize_and_overwriteIZNS_9to_stringEiEUlPcmE_EEvmT_EN11_TerminatorD2Ev
FNDA:640,_ZNSt7__cxx1112basic_stringIcSt11char_traitsIcESaIcEE12_M_constructIPKcEEvT_S8_St20forward_iterator_tag
FNDA:0,_ZNSt7__cxx1112basic_stringIcSt11char_traitsIcESaIcEE12_M_constructIPcEEvT_S7_St20forward_iterator_tag
FNDA:640,_ZZNSt7__cxx1112basic_stringIcSt11char_traitsIcESaIcEE12_M_constructIPKcEEvT_S8_St20forward_iterator_tagEN6_GuardC2EPS4_
FNDA:0,_ZZNSt7__cxx1112basic_stringIcSt11char_traitsIcESaIcEE12_M_constructIPcEEvT_S7_St20forward_iterator_tagEN6_GuardC2EPS4_
FNDA:640,_ZZNSt7__cxx1112basic_stringIcSt11char_traitsIcESaIcEE12_M_constructIPKcEEvT_S8_St20forward_iterator_tagEN6_GuardD2Ev
FNDA:0,_ZZNSt7__cxx1112basic_stringIcSt11char_traitsIcESaIcEE12_M_constructIPcEEvT_S7_St20forward_iterator_tagEN6_GuardD2Ev
FNDA:30,_ZNSt7__cxx1112basic_stringIcSt11char_traitsIcESaIcEE22__resize_and_overwriteIZNS_9to_stringEiEUlPcmE_EEvmT_
FNDA:30,_ZZNSt7__cxx1112basic_stringIcSt11char_traitsIcESaIcEE22__resize_and_overwriteIZNS_9to_stringEiEUlPcmE_EEvmT_EN11_TerminatorD2Ev
FNF:8
FNH:5
DA:221,640
DA:225,640
DA:227,640
DA:229,191
DA:230,191
DA:239,640
DA:242,640
DA:245,640
DA:247,640
DA:249,640
DA:251,640
DA:252,640
DA:583,30
DA:590,30
DA:591,30
DA:597,30
DA:601,30
DA:602,30
DA:610,30
DA:611,30
DA:612,0
DA:613,30
LF:22
LH:21
end_of_record
TN:
SF:/usr/include/c++/14/bits/char_traits.h
FN:136,137,_ZN9__gnu_cxx11char_traitsIcE2eqERKcS3_
FN:199,206,_ZN9__gnu_cxx11char_traitsIcE6lengthEPKc
FN:358,363,_ZNSt11char_traitsIcE2ltERKcS2_
FN:366,382,_ZNSt11char_traitsIcE7compareEPKcS2_m
FN:385,392,_ZNSt11char_traitsIcE6lengthEPKc
FN:419,428,_ZNSt11char_traitsIcE4copyEPcPKcm
FNDA:0,_ZN9__gnu_cxx11char_traitsIcE2eqERKcS3_
FNDA:0,_ZN9__gnu_cxx11char_traitsIcE6lengthEPKc
FNDA:0,_ZNSt11char_traitsIcE2ltERKcS2_
FNDA:250,_ZNSt11char_traitsIcE7compareEPKcS2_m
FNDA:734,_ZNSt11char_traitsIcE6lengthEPKc
FNDA:0,_ZNSt11char_traitsIcE4copyEPcPKcm
FNF:6
FNH:2
DA:136,0
DA:137,0
DA:199,0
DA:202,0
DA:203,0
DA:204,0
DA:205,0
DA:358,0
DA:361,0
DA:362,0
DA:366,250
DA:368,250
DA:369,42
DA:371,208
DA:373,0
DA:374,0
DA:375,0
DA:376,0
DA:377,0
DA:378,0
DA:381,208
DA:385,734
DA:388,734
DA:389,0
DA:391,734
DA:419,0
DA:421,0
DA:422,0
DA:427,0
LF:29
LH:8
end_of_record
TN:
SF:/usr/include/c++/14/bits/charconv.h
FN:55,74,_ZNSt8__detail14__to_chars_lenIjEEjT_i
FN:81,110,_ZNSt8__detail18__to_chars_10_implIjEEvPcjT_
FNDA:30,_ZNSt8__detail14__to_chars_lenIjEEjT_i
FNDA:30,_ZNSt8__detail18__to_chars_10_implIjEEvPcjT_
FNF:2
FNH:2
DA:55,30
DA:61,30
DA:62,30
DA:63,30
DA:64,30
DA:67,30
DA:68,10
DA:69,0
DA:70,0
DA:71,0
DA:72,0
DA:81,30
DA:87,30
DA:93,30
DA:94,30
DA:96,0
DA:97,0
DA:98,0
DA:99,0
DA:100,0
DA:102,30
DA:104,10
DA:105,10
DA:106,10
DA:109,20
DA:110,30
LF:26
LH:17
end_of_record
TN:
SF:/usr/include/c++/14/bits/move.h
FN:127,128,_ZSt4moveIR9HashTableEONSt16remove_referenceIT_E4typeEOS3_
FN:127,128,_ZSt4moveIRNSt7__cxx1112basic_stringIcSt11char_traitsIcESaIcEEEEONSt16remove_referenceIT_E4typeEOS8_
FN:127,128,_ZSt4moveIRP8HashNodeEONSt16remove_referenceIT_E4typeEOS4_
FN:127,128,_ZSt4moveIRPNSt7__cxx1112basic_stringIcSt11char_traitsIcESaIcEEEEONSt16remove_referenceIT_E4typeEOS9_
FN:127,128,_ZSt4moveIRPNSt7__cxx1118basic_stringstreamIcSt11char_traitsIcESaIcEEEEONSt16remove_referenceIT_E4typeEOS9_
FN:127,128,_ZSt4moveIRSaIcEEONSt16remove_referenceIT_E4typeEOS3_
FN:127,128,_ZSt4moveIRZNSt7__cxx119to_stringEiEUlPcmE_EONSt16remove_referenceIT_E4typeEOS5_
FN:127,128,_ZSt4moveIRmEONSt16remove_referenceIT_E4typeEOS2_
FN:214,225,_ZSt4swapImENSt9enable_ifIXsrSt6__and_IJSt6__not_ISt15__is_tuple_likeIT_EESt21is_move_constructibleIS4_ESt18is_move_assignableIS4_EEE5valueEvE4typeERS4_SE_
FN:70,71,_ZSt7forwardISt14default_deleteINSt7__cxx1112basic_stringIcSt11char_traitsIcESaIcEEEEEOT_RNSt16remove_referenceIS8_E4typeE
FNDA:18,_ZSt4moveIR9HashTableEONSt16remove_referenceIT_E4typeEOS3_
FNDA:865,_ZSt4moveIRNSt7__cxx1112basic_stringIcSt11char_traitsIcESaIcEEEEONSt16remove_referenceIT_E4typeEOS8_
FNDA:24,_ZSt4moveIRP8HashNodeEONSt16remove_referenceIT_E4typeEOS4_
FNDA:0,_ZSt4moveIRPNSt7__cxx1112basic_stringIcSt11char_traitsIcESaIcEEEEONSt16remove_referenceIT_E4typeEOS9_
FNDA:290,_ZSt4moveIRPNSt7__cxx1118basic_stringstreamIcSt11char_traitsIcESaIcEEEEONSt16remove_referenceIT_E4typeEOS9_
FNDA:0,_ZSt4moveIRSaIcEEONSt16remove_referenceIT_E4typeEOS3_
FNDA:30,_ZSt4moveIRZNSt7__cxx119to_stringEiEUlPcmE_EONSt16remove_referenceIT_E4typeEOS5_
FNDA:6,_ZSt4moveIRmEONSt16remove_referenceIT_E4typeEOS2_
FNDA:2,_ZSt4swapImENSt9enable_ifIXsrSt6__and_IJSt6__not_ISt15__is_tuple_likeIT_EESt21is_move_constructibleIS4_ESt18is_move_assignableIS4_EEE5valueEvE4typeERS4_SE_
FNDA:0,_ZSt7forwardISt14default_deleteINSt7__cxx1112basic_stringIcSt11char_traitsIcESaIcEEEEEOT_RNSt16remove_referenceIS8_E4typeE
FNF:10
FNH:7
DA:70,0
DA:71,0
DA:127,1233
DA:128,1233
DA:214,2
DA:222,2
DA:223,2
DA:224,2
DA:225,2
LF:9
LH:7
end_of_record
TN:
SF:/usr/include/c++/14/bits/new_allocator.h
FN:104,104,_ZNSt15__new_allocatorIcED2Ev
FNDA:846,_ZNSt15__new_allocatorIcED2Ev
FNF:1
FNH:1
DA:88,166
DA:92,41
DA:104,846
LF:3
LH:3
end_of_record
TN:
SF:/usr/include/c++/14/bits/stl_iterator.h
FN:1090,1091,_ZNK9__gnu_cxx17__normal_iteratorIPKcNSt7__cxx1112basic_stringIcSt11char_traitsIcESaIcEEEEdeEv
FN:1100,1104,_ZN9__gnu_cxx17__normal_iteratorIPKcNSt7__cxx1112basic_stringIcSt11char_traitsIcESaIcEEEEppEv
FN:1153,1154,_ZNK9__gnu_cxx17__normal_iteratorIPKcNSt7__cxx1112basic_stringIcSt11char_traitsIcESaIcEEEE4baseEv
FN:1232,1235,_ZN9__gnu_cxxneIPKcNSt7__cxx1112basic_stringIcSt11char_traitsIcESaIcEEEEEbRKNS_17__normal_iteratorIT_T0_EESE_
FNDA:473,_ZNK9__gnu_cxx17__normal_iteratorIPKcNSt7__cxx1112basic_stringIcSt11char_traitsIcESaIcEEEEdeEv
FNDA:464,_ZN9__gnu_cxx17__normal_iteratorIPKcNSt7__cxx1112basic_stringIcSt11char_traitsIcESaIcEEEEppEv
FNDA:1166,_ZNK9__gnu_cxx17__normal_iteratorIPKcNSt7__cxx1112basic_stringIcSt11char_traitsIcESaIcEEEE4baseEv
FNDA:536,_ZN9__gnu_cxxneIPKcNSt7__cxx1112basic_stringIcSt11char_traitsIcESaIcEEEEEbRKNS_17__normal_iteratorIT_T0_EESE_
FNF:4
FNH:4
DA:1090,473
DA:1091,473
DA:1100,464
DA:1102,464
DA:1103,464
DA:1153,1166
DA:1154,1166
DA:1232,536
DA:1235,536
LF:9
LH:9
end_of_record
TN:
SF:/usr/include/c++/14/bits/stl_iterator_base_funcs.h
FNF:0
FNH:0
DA:106,640
DA:151,1280
DA:152,1280
LF:3
LH:3
end_of_record
TN:
SF:/usr/include/c++/14/bits/stl_iterator_base_types.h
FNF:0
FNH:0
DA:240,640
LF:1
LH:1
end_of_record
TN:
SF:/usr/include/c++/14/bits/unique_ptr.h
FN:1075,1076,_ZSt11make_uniqueINSt7__cxx1112basic_stringIcSt11char_traitsIcESaIcEEEJEENSt8__detail9_MakeUniqIT_E15__single_objectEDpOT0_
FN:168,168,_ZNSt15__uniq_ptr_implINSt7__cxx1112basic_stringIcSt11char_traitsIcESaIcEEESt14default_deleteIS5_EEC2Ev
FN:170,170,_ZNSt15__uniq_ptr_implINSt7__cxx1112basic_stringIcSt11char_traitsIcESaIcEEESt14default_deleteIS5_EEC2EPS5_
FN:183,188,_ZNSt15__uniq_ptr_implINSt7__cxx1112basic_stringIcSt11char_traitsIcESaIcEEESt14default_deleteIS5_EEaSEOS8_
FN:191,191,_ZNSt15__uniq_ptr_implINSt7__cxx1112basic_stringIcSt11char_traitsIcESaIcEEESt14default_deleteIS5_EE6_M_ptrEv
FN:191,191,_ZNSt15__uniq_ptr_implINSt7__cxx1118basic_stringstreamIcSt11char_traitsIcESaIcEEESt14default_deleteIS5_EE6_M_ptrEv
FN:193,193,_ZNKSt15__uniq_ptr_implINSt7__cxx1112basic_stringIcSt11char_traitsIcESaIcEEESt14default_deleteIS5_EE6_M_ptrEv
FN:193,193,_ZNKSt15__uniq_ptr_implINSt7__cxx1118basic_stringstreamIcSt11char_traitsIcESaIcEEESt14default_deleteIS5_EE6_M_ptrEv
FN:195,195,_ZNSt15__uniq_ptr_implINSt7__cxx1112basic_stringIcSt11char_traitsIcESaIcEEESt14default_deleteIS5_EE10_M_deleterEv
FN:195,195,_ZNSt15__uniq_ptr_implINSt7__cxx1118basic_stringstreamIcSt11char_traitsIcESaIcEEESt14default_deleteIS5_EE10_M_deleterEv
FN:200,206,_ZNSt15__uniq_ptr_implINSt7__cxx1112basic_stringIcSt11char_traitsIcESaIcEEESt14default_deleteIS5_EE5resetEPS5_
FN:209,214,_ZNSt15__uniq_ptr_implINSt7__cxx1112basic_stringIcSt11char_traitsIcESaIcEEESt14default_deleteIS5_EE7releaseEv
FN:237,237,_ZNSt15__uniq_ptr_dataINSt7__cxx1112basic_stringIcSt11char_traitsIcESaIcEEESt14default_deleteIS5_ELb1ELb1EEaSEOS8_
FN:298,300,_ZNSt10unique_ptrINSt7__cxx1112basic_stringIcSt11char_traitsIcESaIcEEESt14default_deleteIS5_EEC2IS7_vEEv
FN:311,313,_ZNSt10unique_ptrINSt7__cxx1112basic_stringIcSt11char_traitsIcESaIcEEESt14default_deleteIS5_EEC2IS7_vEEPS5_
FN:392,400,_ZNSt10unique_ptrINSt7__cxx1112basic_stringIcSt11char_traitsIcESaIcEEESt14default_deleteIS5_EED2Ev
FN:392,400,_ZNSt10unique_ptrINSt7__cxx1118basic_stringstreamIcSt11char_traitsIcESaIcEEESt14default_deleteIS5_EED2Ev
FN:408,408,_ZNSt10unique_ptrINSt7__cxx1112basic_stringIcSt11char_traitsIcESaIcEEESt14default_deleteIS5_EEaSEOS8_
FN:445,449,_ZNKSt10unique_ptrINSt7__cxx1118basic_stringstreamIcSt11char_traitsIcESaIcEEESt14default_deleteIS5_EEdeEv
FN:454,458,_ZNKSt10unique_ptrINSt7__cxx1112basic_stringIcSt11char_traitsIcESaIcEEESt14default_deleteIS5_EEptEv
FN:463,464,_ZNKSt10unique_ptrINSt7__cxx1112basic_stringIcSt11char_traitsIcESaIcEEESt14default_deleteIS5_EE3getEv
FN:463,464,_ZNKSt10unique_ptrINSt7__cxx1118basic_stringstreamIcSt11char_traitsIcESaIcEEESt14default_deleteIS5_EE3getEv
FN:469,470,_ZNSt10unique_ptrINSt7__cxx1112basic_stringIcSt11char_traitsIcESaIcEEESt14default_deleteIS5_EE11get_deleterEv
FN:469,470,_ZNSt10unique_ptrINSt7__cxx1118basic_stringstreamIcSt11char_traitsIcESaIcEEESt14default_deleteIS5_EE11get_deleterEv
FN:480,481,_ZNKSt10unique_ptrINSt7__cxx1112basic_stringIcSt11char_traitsIcESaIcEEESt14default_deleteIS5_EEcvbEv
FN:845,846,_ZSteqINSt7__cxx1112basic_stringIcSt11char_traitsIcESaIcEEESt14default_deleteIS5_EEbRKSt10unique_ptrIT_T0_EDn
FN:869,870,_ZStneINSt7__cxx1112basic_stringIcSt11char_traitsIcESaIcEEESt14default_deleteIS5_EEbRKSt10unique_ptrIT_T0_EDn
FN:87,94,_ZNKSt14default_deleteINSt7__cxx1112basic_stringIcSt11char_traitsIcESaIcEEEEclEPS5_
FN:87,94,_ZNKSt14default_deleteINSt7__cxx1118basic_stringstreamIcSt11char_traitsIcESaIcEEEEclEPS5_
FNDA:0,_ZSt11make_uniqueINSt7__cxx1112basic_stringIcSt11char_traitsIcESaIcEEEJEENSt8__detail9_MakeUniqIT_E15__single_objectEDpOT0_
FNDA:181,_ZNSt15__uniq_ptr_implINSt7__cxx1112basic_stringIcSt11char_traitsIcESaIcEEESt14default_deleteIS5_EEC2Ev
FNDA:0,_ZNSt15__uniq_ptr_implINSt7__cxx1112basic_stringIcSt11char_traitsIcESaIcEEESt14default_deleteIS5_EEC2EPS5_
FNDA:0,_ZNSt15__uniq_ptr_implINSt7__cxx1112basic_stringIcSt11char_traitsIcESaIcEEESt14default_deleteIS5_EEaSEOS8_
FNDA:181,_ZNSt15__uniq_ptr_implINSt7__cxx1112basic_stringIcSt11char_traitsIcESaIcEEESt14default_deleteIS5_EE6_M_ptrEv
FNDA:580,_ZNSt15__uniq_ptr_implINSt7__cxx1118basic_stringstreamIcSt11char_traitsIcESaIcEEESt14default_deleteIS5_EE6_M_ptrEv
FNDA:0,_ZNKSt15__uniq_ptr_implINSt7__cxx1112basic_stringIcSt11char_traitsIcESaIcEEESt14default_deleteIS5_EE6_M_ptrEv
FNDA:708,_ZNKSt15__uniq_ptr_implINSt7__cxx1118basic_stringstreamIcSt11char_traitsIcESaIcEEESt14default_deleteIS5_EE6_M_ptrEv
FNDA:0,_ZNSt15__uniq_ptr_implINSt7__cxx1112basic_stringIcSt11char_traitsIcESaIcEEESt14default_deleteIS5_EE10_M_deleterEv
FNDA:290,_ZNSt15__uniq_ptr_implINSt7__cxx1118basic_stringstreamIcSt11char_traitsIcESaIcEEESt14default_deleteIS5_EE10_M_deleterEv
FNDA:0,_ZNSt15__uniq_ptr_implINSt7__cxx1112basic_stringIcSt11char_traitsIcESaIcEEESt14default_deleteIS5_EE5resetEPS5_
FNDA:0,_ZNSt15__uniq_ptr_implINSt7__cxx1112basic_stringIcSt11char_traitsIcESaIcEEESt14default_deleteIS5_EE7releaseEv
FNDA:0,_ZNSt15__uniq_ptr_dataINSt7__cxx1112basic_stringIcSt11char_traitsIcESaIcEEESt14default_deleteIS5_ELb1ELb1EEaSEOS8_
FNDA:181,_ZNSt10unique_ptrINSt7__cxx1112basic_stringIcSt11char_traitsIcESaIcEEESt14default_deleteIS5_EEC2IS7_vEEv
FNDA:0,_ZNSt10unique_ptrINSt7__cxx1112basic_stringIcSt11char_traitsIcESaIcEEESt14default_deleteIS5_EEC2IS7_vEEPS5_
FNDA:181,_ZNSt10unique_ptrINSt7__cxx1112basic_stringIcSt11char_traitsIcESaIcEEESt14default_deleteIS5_EED2Ev
FNDA:290,_ZNSt10unique_ptrINSt7__cxx1118basic_stringstreamIcSt11char_traitsIcESaIcEEESt14default_deleteIS5_EED2Ev
FNDA:0,_ZNSt10unique_ptrINSt7__cxx1112basic_stringIcSt11char_traitsIcESaIcEEESt14default_deleteIS5_EEaSEOS8_
FNDA:610,_ZNKSt10unique_ptrINSt7__cxx1118basic_stringstreamIcSt11char_traitsIcESaIcEEESt14default_deleteIS5_EEdeEv
FNDA:0,_ZNKSt10unique_ptrINSt7__cxx1112basic_stringIcSt11char_traitsIcESaIcEEESt14default_deleteIS5_EEptEv
FNDA:0,_ZNKSt10unique_ptrINSt7__cxx1112basic_stringIcSt11char_traitsIcESaIcEEESt14default_deleteIS5_EE3getEv
FNDA:708,_ZNKSt10unique_ptrINSt7__cxx1118basic_stringstreamIcSt11char_traitsIcESaIcEEESt14default_deleteIS5_EE3getEv
FNDA:0,_ZNSt10unique_ptrINSt7__cxx1112basic_stringIcSt11char_traitsIcESaIcEEESt14default_deleteIS5_EE11get_deleterEv
FNDA:290,_ZNSt10unique_ptrINSt7__cxx1118basic_stringstreamIcSt11char_traitsIcESaIcEEESt14default_deleteIS5_EE11get_deleterEv
FNDA:0,_ZNKSt10unique_ptrINSt7__cxx1112basic_stringIcSt11char_traitsIcESaIcEEESt14default_deleteIS5_EEcvbEv
FNDA:0,_ZSteqINSt7__cxx1112basic_stringIcSt11char_traitsIcESaIcEEESt14default_deleteIS5_EEbRKSt10unique_ptrIT_T0_EDn
FNDA:0,_ZStneINSt7__cxx1112basic_stringIcSt11char_traitsIcESaIcEEESt14default_deleteIS5_EEbRKSt10unique_ptrIT_T0_EDn
FNDA:0,_ZNKSt14default_deleteINSt7__cxx1112basic_stringIcSt11char_traitsIcESaIcEEEEclEPS5_
FNDA:290,_ZNKSt14default_deleteINSt7__cxx1118basic_stringstreamIcSt11char_traitsIcESaIcEEEEclEPS5_
FNF:29
FNH:12
DA:87,290
DA:93,290
DA:94,290
DA:168,181
DA:170,0
DA:183,0
DA:185,0
DA:186,0
DA:187,0
DA:191,761
DA:193,708
DA:195,290
DA:200,0
DA:202,0
DA:203,0
DA:204,0
DA:205,0
DA:206,0
DA:209,0
DA:211,0
DA:212,0
DA:213,0
DA:237,0
DA:298,181
DA:299,181
DA:300,181
DA:311,0
DA:312,0
DA:313,0
DA:392,471
DA:396,471
DA:397,471
DA:398,290
DA:399,471
DA:400,471
DA:408,0
DA:445,610
DA:447,610
DA:448,610
DA:454,0
DA:457,0
DA:463,708
DA:464,708
DA:469,290
DA:470,290
DA:480,0
DA:481,0
DA:845,0
DA:846,0
DA:869,0
DA:870,0
DA:1075,0
DA:1076,0
LF:53
LH:23
end_of_record
TN:
SF:/usr/include/c++/14/ext/alloc_traits.h
FNF:0
FNH:0
DA:98,41
LF:1
LH:1
end_of_record
TN:
SF:/usr/include/c++/14/tuple
FN:133,133,_ZNSt10_Head_baseILm1ESt14default_deleteINSt7__cxx1112basic_stringIcSt11char_traitsIcESaIcEEEELb1EE7_M_headERS8_
FN:133,133,_ZNSt10_Head_baseILm1ESt14default_deleteINSt7__cxx1118basic_stringstreamIcSt11char_traitsIcESaIcEEEELb1EE7_M_headERS8_
FN:198,199,_ZNSt10_Head_baseILm0EPNSt7__cxx1112basic_stringIcSt11char_traitsIcESaIcEEELb0EEC2Ev
FN:2089,2091,_ZNSt5tupleIJPNSt7__cxx1112basic_stringIcSt11char_traitsIcESaIcEEESt14default_deleteIS5_EEEC2ILb1ELb1EEEv
FN:242,242,_ZNSt10_Head_baseILm0EPNSt7__cxx1112basic_stringIcSt11char_traitsIcESaIcEEELb0EE7_M_headERS7_
FN:242,242,_ZNSt10_Head_baseILm0EPNSt7__cxx1118basic_stringstreamIcSt11char_traitsIcESaIcEEELb0EE7_M_headERS7_
FN:2427,2428,_ZSt12__get_helperILm0EPNSt7__cxx1112basic_stringIcSt11char_traitsIcESaIcEEEJSt14default_deleteIS5_EEERT0_RSt11_Tuple_implIXT_EJS9_DpT1_EE
FN:2427,2428,_ZSt12__get_helperILm0EPNSt7__cxx1118basic_stringstreamIcSt11char_traitsIcESaIcEEEJSt14default_deleteIS5_EEERT0_RSt11_Tuple_implIXT_EJS9_DpT1_EE
FN:2427,2428,_ZSt12__get_helperILm1ESt14default_deleteINSt7__cxx1112basic_stringIcSt11char_traitsIcESaIcEEEEJEERT0_RSt11_Tuple_implIXT_EJS8_DpT1_EE
FN:2427,2428,_ZSt12__get_helperILm1ESt14default_deleteINSt7__cxx1118basic_stringstreamIcSt11char_traitsIcESaIcEEEEJEERT0_RSt11_Tuple_implIXT_EJS8_DpT1_EE
FN:2432,2433,_ZSt12__get_helperILm0EPNSt7__cxx1112basic_stringIcSt11char_traitsIcESaIcEEEJSt14default_deleteIS5_EEERKT0_RKSt11_Tuple_implIXT_EJS9_DpT1_EE
FN:2432,2433,_ZSt12__get_helperILm0EPNSt7__cxx1118basic_stringstreamIcSt11char_traitsIcESaIcEEEJSt14default_deleteIS5_EEERKT0_RKSt11_Tuple_implIXT_EJS9_DpT1_EE
FN:2443,2444,_ZSt3getILm0EJPNSt7__cxx1112basic_stringIcSt11char_traitsIcESaIcEEESt14default_deleteIS5_EEERNSt13tuple_elementIXT_ESt5tupleIJDpT0_EEE4typeERSD_
FN:2443,2444,_ZSt3getILm0EJPNSt7__cxx1118basic_stringstreamIcSt11char_traitsIcESaIcEEESt14default_deleteIS5_EEERNSt13tuple_elementIXT_ESt5tupleIJDpT0_EEE4typeERSD_
FN:2443,2444,_ZSt3getILm1EJPNSt7__cxx1112basic_stringIcSt11char_traitsIcESaIcEEESt14default_deleteIS5_EEERNSt13tuple_elementIXT_ESt5tupleIJDpT0_EEE4typeERSD_
FN:2443,2444,_ZSt3getILm1EJPNSt7__cxx1118basic_stringstreamIcSt11char_traitsIcESaIcEEESt14default_deleteIS5_EEERNSt13tuple_elementIXT_ESt5tupleIJDpT0_EEE4typeERSD_
FN:2449,2450,_ZSt3getILm0EJPNSt7__cxx1112basic_stringIcSt11char_traitsIcESaIcEEESt14default_deleteIS5_EEERKNSt13tuple_elementIXT_ESt5tupleIJDpT0_EEE4typeERKSD_
FN:2449,2450,_ZSt3getILm0EJPNSt7__cxx1118basic_stringstreamIcSt11char_traitsIcESaIcEEESt14default_deleteIS5_EEERKNSt13tuple_elementIXT_ESt5tupleIJDpT0_EEE4typeERKSD_
FN:245,245,_ZNSt10_Head_baseILm0EPNSt7__cxx1112basic_stringIcSt11char_traitsIcESaIcEEELb0EE7_M_headERKS7_
FN:245,245,_ZNSt10_Head_baseILm0EPNSt7__cxx1118basic_stringstreamIcSt11char_traitsIcESaIcEEELb0EE7_M_headERKS7_
FN:293,293,_ZNSt11_Tuple_implILm0EJPNSt7__cxx1112basic_stringIcSt11char_traitsIcESaIcEEESt14default_deleteIS5_EEE7_M_headERS9_
FN:293,293,_ZNSt11_Tuple_implILm0EJPNSt7__cxx1118basic_stringstreamIcSt11char_traitsIcESaIcEEESt14default_deleteIS5_EEE7_M_headERS9_
FN:296,296,_ZNSt11_Tuple_implILm0EJPNSt7__cxx1112basic_stringIcSt11char_traitsIcESaIcEEESt14default_deleteIS5_EEE7_M_headERKS9_
FN:296,296,_ZNSt11_Tuple_implILm0EJPNSt7__cxx1118basic_stringstreamIcSt11char_traitsIcESaIcEEESt14default_deleteIS5_EEE7_M_headERKS9_
FN:304,305,_ZNSt11_Tuple_implILm0EJPNSt7__cxx1112basic_stringIcSt11char_traitsIcESaIcEEESt14default_deleteIS5_EEEC2Ev
FN:556,556,_ZNSt11_Tuple_implILm1EJSt14default_deleteINSt7__cxx1112basic_stringIcSt11char_traitsIcESaIcEEEEEE7_M_headERS8_
FN:556,556,_ZNSt11_Tuple_implILm1EJSt14default_deleteINSt7__cxx1118basic_stringstreamIcSt11char_traitsIcESaIcEEEEEE7_M_headERS8_
FN:562,563,_ZNSt11_Tuple_implILm1EJSt14default_deleteINSt7__cxx1112basic_stringIcSt11char_traitsIcESaIcEEEEEEC2Ev
FN:89,90,_ZNSt10_Head_baseILm1ESt14default_deleteINSt7__cxx1112basic_stringIcSt11char_traitsIcESaIcEEEELb1EEC2Ev
FNDA:0,_ZNSt10_Head_baseILm1ESt14default_deleteINSt7__cxx1112basic_stringIcSt11char_traitsIcESaIcEEEELb1EE7_M_headERS8_
FNDA:290,_ZNSt10_Head_baseILm1ESt14default_deleteINSt7__cxx1118basic_stringstreamIcSt11char_traitsIcESaIcEEEELb1EE7_M_headERS8_
FNDA:181,_ZNSt10_Head_baseILm0EPNSt7__cxx1112basic_stringIcSt11char_traitsIcESaIcEEELb0EEC2Ev
FNDA:181,_ZNSt5tupleIJPNSt7__cxx1112basic_stringIcSt11char_traitsIcESaIcEEESt14default_deleteIS5_EEEC2ILb1ELb1EEEv
FNDA:181,_ZNSt10_Head_baseILm0EPNSt7__cxx1112basic_stringIcSt11char_traitsIcESaIcEEELb0EE7_M_headERS7_
FNDA:580,_ZNSt10_Head_baseILm0EPNSt7__cxx1118basic_stringstreamIcSt11char_traitsIcESaIcEEELb0EE7_M_headERS7_
FNDA:181,_ZSt12__get_helperILm0EPNSt7__cxx1112basic_stringIcSt11char_traitsIcESaIcEEEJSt14default_deleteIS5_EEERT0_RSt11_Tuple_implIXT_EJS9_DpT1_EE
FNDA:580,_ZSt12__get_helperILm0EPNSt7__cxx1118basic_stringstreamIcSt11char_traitsIcESaIcEEEJSt14default_deleteIS5_EEERT0_RSt11_Tuple_implIXT_EJS9_DpT1_EE
FNDA:0,_ZSt12__get_helperILm1ESt14default_deleteINSt7__cxx1112basic_stringIcSt11char_traitsIcESaIcEEEEJEERT0_RSt11_Tuple_implIXT_EJS8_DpT1_EE
FNDA:290,_ZSt12__get_helperILm1ESt14default_deleteINSt7__cxx1118basic_stringstreamIcSt11char_traitsIcESaIcEEEEJEERT0_RSt11_Tuple_implIXT_EJS8_DpT1_EE
FNDA:0,_ZSt12__get_helperILm0EPNSt7__cxx1112basic_stringIcSt11char_traitsIcESaIcEEEJSt14default_deleteIS5_EEERKT0_RKSt11_Tuple_implIXT_EJS9_DpT1_EE
FNDA:708,_ZSt12__get_helperILm0EPNSt7__cxx1118basic_stringstreamIcSt11char_traitsIcESaIcEEEJSt14default_deleteIS5_EEERKT0_RKSt11_Tuple_implIXT_EJS9_DpT1_EE
FNDA:181,_ZSt3getILm0EJPNSt7__cxx1112basic_stringIcSt11char_traitsIcESaIcEEESt14default_deleteIS5_EEERNSt13tuple_elementIXT_ESt5tupleIJDpT0_EEE4typeERSD_
FNDA:580,_ZSt3getILm0EJPNSt7__cxx1118basic_stringstreamIcSt11char_traitsIcESaIcEEESt14default_deleteIS5_EEERNSt13tuple_elementIXT_ESt5tupleIJDpT0_EEE4typeERSD_
FNDA:0,_ZSt3getILm1EJPNSt7__cxx1112basic_stringIcSt11char_traitsIcESaIcEEESt14default_deleteIS5_EEERNSt13tuple_elementIXT_ESt5tupleIJDpT0_EEE4typeERSD_
FNDA:290,_ZSt3getILm1EJPNSt7__cxx1118basic_stringstreamIcSt11char_traitsIcESaIcEEESt14default_deleteIS5_EEERNSt13tuple_elementIXT_ESt5tupleIJDpT0_EEE4typeERSD_
FNDA:0,_ZSt3getILm0EJPNSt7__cxx1112basic_stringIcSt11char_traitsIcESaIcEEESt14default_deleteIS5_EEERKNSt13tuple_elementIXT_ESt5tupleIJDpT0_EEE4typeERKSD_
FNDA:708,_ZSt3getILm0EJPNSt7__cxx1118basic_stringstreamIcSt11char_traitsIcESaIcEEESt14default_deleteIS5_EEERKNSt13tuple_elementIXT_ESt5tupleIJDpT0_EEE4typeERKSD_
FNDA:0,_ZNSt10_Head_baseILm0EPNSt7__cxx1112basic_stringIcSt11char_traitsIcESaIcEEELb0EE7_M_headERKS7_
FNDA:708,_ZNSt10_Head_baseILm0EPNSt7__cxx1118basic_stringstreamIcSt11char_traitsIcESaIcEEELb0EE7_M_headERKS7_
FNDA:181,_ZNSt11_Tuple_implILm0EJPNSt7__cxx1112basic_stringIcSt11char_traitsIcESaIcEEESt14default_deleteIS5_EEE7_M_headERS9_
FNDA:580,_ZNSt11_Tuple_implILm0EJPNSt7__cxx1118basic_stringstreamIcSt11char_traitsIcESaIcEEESt14default_deleteIS5_EEE7_M_headERS9_
FNDA:0,_ZNSt11_Tuple_implILm0EJPNSt7__cxx1112basic_stringIcSt11char_traitsIcESaIcEEESt14default_deleteIS5_EEE7_M_headERKS9_
FNDA:708,_ZNSt11_Tuple_implILm0EJPNSt7__cxx1118basic_stringstreamIcSt11char_traitsIcESaIcEEESt14default_deleteIS5_EEE7_M_headERKS9_
FNDA:181,_ZNSt11_Tuple_implILm0EJPNSt7__cxx1112basic_stringIcSt11char_traitsIcESaIcEEESt14default_deleteIS5_EEEC2Ev
FNDA:0,_ZNSt11_Tuple_implILm1EJSt14default_deleteINSt7__cxx1112basic_stringIcSt11char_traitsIcESaIcEEEEEE7_M_headERS8_
FNDA:290,_ZNSt11_Tuple_implILm1EJSt14default_deleteINSt7__cxx1118basic_stringstreamIcSt11char_traitsIcESaIcEEEEEE7_M_headERS8_
FNDA:181,_ZNSt11_Tuple_implILm1EJSt14default_deleteINSt7__cxx1112basic_stringIcSt11char_traitsIcESaIcEEEEEEC2Ev
FNDA:181,_ZNSt10_Head_baseILm1ESt14default_deleteINSt7__cxx1112basic_stringIcSt11char_traitsIcESaIcEEEELb1EEC2Ev
FNF:29
FNH:21
DA:89,181
DA:90,181
DA:133,290
DA:198,181
DA:199,181
DA:242,761
DA:245,708
DA:293,761
DA:296,708
DA:304,181
DA:305,181
DA:556,290
DA:562,181
DA:563,181
DA:2089,181
DA:2091,181
DA:2427,1051
DA:2428,1051
DA:2432,708
DA:2433,708
DA:2443,1051
DA:2444,1051
DA:2449,708
DA:2450,708
LF:24
LH:24
end_of_record
TN:
SF:/usr/include/c++/14/typeinfo
FN:102,103,_ZNKSt9type_info4nameEv
FNDA:0,_ZNKSt9type_info4nameEv
FNF:1
FNH:0
DA:102,0
DA:103,0
LF:2
LH:0
end_of_record
TN:
SF:/usr/include/c++/14/x86_64-redhat-linux/bits/c++config.h
FNF:0
FNH:0
DA:2391,1552
DA:2447,0
LF:2
LH:1
end_of_record
TN:
SF:/usr/local/include/gtest/gtest-assertion-result.h
FN:155,161,_ZN7testing15AssertionResultC2IbEERKT_PNSt9enable_ifIXntsrSt14is_convertibleIS2_S0_E5valueEvE4typeE
FN:174,174,_ZNK7testing15AssertionResultcvbEv
FN:183,185,_ZNK7testing15AssertionResult7messageEv
FN:187,187,_ZNK7testing15AssertionResult15failure_messageEv
FN:191,194,_ZN7testing15AssertionResultlsIA12_cEERS0_RKT_
FN:191,194,_ZN7testing15AssertionResultlsIA3_cEERS0_RKT_
FN:191,194,_ZN7testing15AssertionResultlsIA5_cEERS0_RKT_
FN:191,194,_ZN7testing15AssertionResultlsINSt7__cxx1112basic_stringIcSt11char_traitsIcESaIcEEEEERS0_RKT_
FN:191,194,_ZN7testing15AssertionResultlsIPKcEERS0_RKT_
FN:206,209,_ZN7testing15AssertionResult13AppendMessageERKNS_7MessageE
FNDA:181,_ZN7testing15AssertionResultC2IbEERKT_PNSt9enable_ifIXntsrSt14is_convertibleIS2_S0_E5valueEvE4typeE
FNDA:181,_ZNK7testing15AssertionResultcvbEv
FNDA:0,_ZNK7testing15AssertionResult7messageEv
FNDA:0,_ZNK7testing15AssertionResult15failure_messageEv
FNDA:0,_ZN7testing15AssertionResultlsIA12_cEERS0_RKT_
FNDA:0,_ZN7testing15AssertionResultlsIA3_cEERS0_RKT_
FNDA:0,_ZN7testing15AssertionResultlsIA5_cEERS0_RKT_
FNDA:0,_ZN7testing15AssertionResultlsINSt7__cxx1112basic_stringIcSt11char_traitsIcESaIcEEEEERS0_RKT_
FNDA:0,_ZN7testing15AssertionResultlsIPKcEERS0_RKT_
FNDA:0,_ZN7testing15AssertionResult13AppendMessageERKNS_7MessageE
FNF:10
FNH:2
DA:155,181
DA:161,181
DA:174,181
DA:183,0
DA:184,0
DA:187,0
DA:191,0
DA:192,0
DA:193,0
DA:206,0
DA:207,0
DA:208,0
DA:209,0
LF:13
LH:3
end_of_record
TN:
SF:/usr/local/include/gtest/gtest-message.h
FN:132,150,_ZN7testing7MessagelsIA12_cEERS0_RKT_
FN:132,150,_ZN7testing7MessagelsIA22_cEERS0_RKT_
FN:132,150,_ZN7testing7MessagelsIA24_cEERS0_RKT_
FN:132,150,_ZN7testing7MessagelsIA28_cEERS0_RKT_
FN:132,150,_ZN7testing7MessagelsIA3_cEERS0_RKT_
FN:132,150,_ZN7testing7MessagelsIA5_cEERS0_RKT_
FN:132,150,_ZN7testing7MessagelsINSt7__cxx1112basic_stringIcSt11char_traitsIcESaIcEEEEERS0_RKT_
FN:181,188,_ZN7testing7MessagelsIKcEERS0_RKPT_
FNDA:0,_ZN7testing7MessagelsIA12_cEERS0_RKT_
FNDA:0,_ZN7testing7MessagelsIA22_cEERS0_RKT_
FNDA:0,_ZN7testing7MessagelsIA24_cEERS0_RKT_
FNDA:0,_ZN7testing7MessagelsIA28_cEERS0_RKT_
FNDA:0,_ZN7testing7MessagelsIA3_cEERS0_RKT_
FNDA:0,_ZN7testing7MessagelsIA5_cEERS0_RKT_
FNDA:0,_ZN7testing7MessagelsINSt7__cxx1112basic_stringIcSt11char_traitsIcESaIcEEEEERS0_RKT_
FNDA:21,_ZN7testing7MessagelsIKcEERS0_RKPT_
FNF:8
FNH:1
DA:132,0
DA:148,0
DA:149,0
DA:181,21
DA:182,21
DA:183,0
DA:185,21
DA:187,21
LF:8
LH:4
end_of_record
TN:
SF:/usr/local/include/gtest/gtest-printers.h
FN:1025,1027,_ZN7testing8internal21UniversalTersePrinterIbE5PrintERKbPSo
FN:1025,1027,_ZN7testing8internal21UniversalTersePrinterIiE5PrintERKiPSo
FN:1025,1027,_ZN7testing8internal21UniversalTersePrinterIjE5PrintERKjPSo
FN:1025,1027,_ZN7testing8internal21UniversalTersePrinterImE5PrintERKmPSo
FN:1144,1149,_ZN7testing8internal14UniversalPrintIbEEvRKT_PSo
FN:1144,1149,_ZN7testing8internal14UniversalPrintIiEEvRKT_PSo
FN:1144,1149,_ZN7testing8internal14UniversalPrintIjEEvRKT_PSo
FN:1144,1149,_ZN7testing8internal14UniversalPrintImEEvRKT_PSo
FN:1184,1188,_ZN7testing13PrintToStringIbEENSt7__cxx1112basic_stringIcSt11char_traitsIcESaIcEEERKT_
FN:1184,1188,_ZN7testing13PrintToStringIiEENSt7__cxx1112basic_stringIcSt11char_traitsIcESaIcEEERKT_
FN:1184,1188,_ZN7testing13PrintToStringIjEENSt7__cxx1112basic_stringIcSt11char_traitsIcESaIcEEERKT_
FN:1184,1188,_ZN7testing13PrintToStringImEENSt7__cxx1112basic_stringIcSt11char_traitsIcESaIcEEERKT_
FN:244,249,_ZN7testing8internal52internal_stream_operator_without_lexical_name_lookup13StreamPrinter10PrintValueIivEEDTcvvlsdefp0_fp_ERKT_PSo
FN:244,249,_ZN7testing8internal52internal_stream_operator_without_lexical_name_lookup13StreamPrinter10PrintValueIjvEEDTcvvlsdefp0_fp_ERKT_PSo
FN:244,249,_ZN7testing8internal52internal_stream_operator_without_lexical_name_lookup13StreamPrinter10PrintValueImvEEDTcvvlsdefp0_fp_ERKT_PSo
FN:348,359,_ZN7testing8internal17PrintWithFallbackIiEEvRKT_PSo
FN:348,359,_ZN7testing8internal17PrintWithFallbackIjEEvRKT_PSo
FN:348,359,_ZN7testing8internal17PrintWithFallbackImEEvRKT_PSo
FN:379,381,_ZN7testing8internal19FormatForComparisonIbbE6FormatB5cxx11ERKb
FN:379,381,_ZN7testing8internal19FormatForComparisonIiiE6FormatB5cxx11ERKi
FN:379,381,_ZN7testing8internal19FormatForComparisonIijE6FormatB5cxx11ERKi
FN:379,381,_ZN7testing8internal19FormatForComparisonIimE6FormatB5cxx11ERKi
FN:379,381,_ZN7testing8internal19FormatForComparisonIjiE6FormatB5cxx11ERKj
FN:379,381,_ZN7testing8internal19FormatForComparisonIjjE6FormatB5cxx11ERKj
FN:379,381,_ZN7testing8internal19FormatForComparisonImiE6FormatB5cxx11ERKm
FN:379,381,_ZN7testing8internal19FormatForComparisonImmE6FormatB5cxx11ERKm
FN:459,462,_ZN7testing8internal33FormatForComparisonFailureMessageIbbEENSt7__cxx1112basic_stringIcSt11char_traitsIcESaIcEEERKT_RKT0_
FN:459,462,_ZN7testing8internal33FormatForComparisonFailureMessageIiiEENSt7__cxx1112basic_stringIcSt11char_traitsIcESaIcEEERKT_RKT0_
FN:459,462,_ZN7testing8internal33FormatForComparisonFailureMessageIijEENSt7__cxx1112basic_stringIcSt11char_traitsIcESaIcEEERKT_RKT0_
FN:459,462,_ZN7testing8internal33FormatForComparisonFailureMessageIimEENSt7__cxx1112basic_stringIcSt11char_traitsIcESaIcEEERKT_RKT0_
FN:459,462,_ZN7testing8internal33FormatForComparisonFailureMessageIjiEENSt7__cxx1112basic_stringIcSt11char_traitsIcESaIcEEERKT_RKT0_
FN:459,462,_ZN7testing8internal33FormatForComparisonFailureMessageIjjEENSt7__cxx1112basic_stringIcSt11char_traitsIcESaIcEEERKT_RKT0_
FN:459,462,_ZN7testing8internal33FormatForComparisonFailureMessageImiEENSt7__cxx1112basic_stringIcSt11char_traitsIcESaIcEEERKT_RKT0_
FN:459,462,_ZN7testing8internal33FormatForComparisonFailureMessageImmEENSt7__cxx1112basic_stringIcSt11char_traitsIcESaIcEEERKT_RKT0_
FN:486,488,_ZN7testing8internal7PrintToIiEEvRKT_PSo
FN:486,488,_ZN7testing8internal7PrintToIjEEvRKT_PSo
FN:486,488,_ZN7testing8internal7PrintToImEEvRKT_PSo
FN:505,507,_ZN7testing8internal7PrintToEbPSo
FN:835,845,_ZN7testing8internal16UniversalPrinterIbE5PrintERKbPSo
FN:835,845,_ZN7testing8internal16UniversalPrinterIiE5PrintERKiPSo
FN:835,845,_ZN7testing8internal16UniversalPrinterIjE5PrintERKjPSo
FN:835,845,_ZN7testing8internal16UniversalPrinterImE5PrintERKmPSo
FNDA:0,_ZN7testing8internal21UniversalTersePrinterIbE5PrintERKbPSo
FNDA:0,_ZN7testing8internal21UniversalTersePrinterIiE5PrintERKiPSo
FNDA:0,_ZN7testing8internal21UniversalTersePrinterIjE5PrintERKjPSo
FNDA:0,_ZN7testing8internal21UniversalTersePrinterImE5PrintERKmPSo
FNDA:0,_ZN7testing8internal14UniversalPrintIbEEvRKT_PSo
FNDA:0,_ZN7testing8internal14UniversalPrintIiEEvRKT_PSo
FNDA:0,_ZN7testing8internal14UniversalPrintIjEEvRKT_PSo
FNDA:0,_ZN7testing8internal14UniversalPrintImEEvRKT_PSo
FNDA:0,_ZN7testing13PrintToStringIbEENSt7__cxx1112basic_stringIcSt11char_traitsIcESaIcEEERKT_
FNDA:0,_ZN7testing13PrintToStringIiEENSt7__cxx1112basic_stringIcSt11char_traitsIcESaIcEEERKT_
FNDA:0,_ZN7testing13PrintToStringIjEENSt7__cxx1112basic_stringIcSt11char_traitsIcESaIcEEERKT_
FNDA:0,_ZN7testing13PrintToStringImEENSt7__cxx1112basic_stringIcSt11char_traitsIcESaIcEEERKT_
FNDA:0,_ZN7testing8internal52internal_stream_operator_without_lexical_name_lookup13StreamPrinter10PrintValueIivEEDTcvvlsdefp0_fp_ERKT_PSo
FNDA:0,_ZN7testing8internal52internal_stream_operator_without_lexical_name_lookup13StreamPrinter10PrintValueIjvEEDTcvvlsdefp0_fp_ERKT_PSo
FNDA:0,_ZN7testing8internal52internal_stream_operator_without_lexical_name_lookup13StreamPrinter10PrintValueImvEEDTcvvlsdefp0_fp_ERKT_PSo
FNDA:0,_ZN7testing8internal17PrintWithFallbackIiEEvRKT_PSo
FNDA:0,_ZN7testing8internal17PrintWithFallbackIjEEvRKT_PSo
FNDA:0,_ZN7testing8internal17PrintWithFallbackImEEvRKT_PSo
FNDA:0,_ZN7testing8internal19FormatForComparisonIbbE6FormatB5cxx11ERKb
FNDA:0,_ZN7testing8internal19FormatForComparisonIiiE6FormatB5cxx11ERKi
FNDA:0,_ZN7testing8internal19FormatForComparisonIijE6FormatB5cxx11ERKi
FNDA:0,_ZN7testing8internal19FormatForComparisonIimE6FormatB5cxx11ERKi
FNDA:0,_ZN7testing8internal19FormatForComparisonIjiE6FormatB5cxx11ERKj
FNDA:0,_ZN7testing8internal19FormatForComparisonIjjE6FormatB5cxx11ERKj
FNDA:0,_ZN7testing8internal19FormatForComparisonImiE6FormatB5cxx11ERKm
FNDA:0,_ZN7testing8internal19FormatForComparisonImmE6FormatB5cxx11ERKm
FNDA:0,_ZN7testing8internal33FormatForComparisonFailureMessageIbbEENSt7__cxx1112basic_stringIcSt11char_traitsIcESaIcEEERKT_RKT0_
FNDA:0,_ZN7testing8internal33FormatForComparisonFailureMessageIiiEENSt7__cxx1112basic_stringIcSt11char_traitsIcESaIcEEERKT_RKT0_
FNDA:0,_ZN7testing8internal33FormatForComparisonFailureMessageIijEENSt7__cxx1112basic_stringIcSt11char_traitsIcESaIcEEERKT_RKT0_
FNDA:0,_ZN7testing8internal33FormatForComparisonFailureMessageIimEENSt7__cxx1112basic_stringIcSt11char_traitsIcESaIcEEERKT_RKT0_
FNDA:0,_ZN7testing8internal33FormatForComparisonFailureMessageIjiEENSt7__cxx1112basic_stringIcSt11char_traitsIcESaIcEEERKT_RKT0_
FNDA:0,_ZN7testing8internal33FormatForComparisonFailureMessageIjjEENSt7__cxx1112basic_stringIcSt11char_traitsIcESaIcEEERKT_RKT0_
FNDA:0,_ZN7testing8internal33FormatForComparisonFailureMessageImiEENSt7__cxx1112basic_stringIcSt11char_traitsIcESaIcEEERKT_RKT0_
FNDA:0,_ZN7testing8internal33FormatForComparisonFailureMessageImmEENSt7__cxx1112basic_stringIcSt11char_traitsIcESaIcEEERKT_RKT0_
FNDA:0,_ZN7testing8internal7PrintToIiEEvRKT_PSo
FNDA:0,_ZN7testing8internal7PrintToIjEEvRKT_PSo
FNDA:0,_ZN7testing8internal7PrintToImEEvRKT_PSo
FNDA:0,_ZN7testing8internal7PrintToEbPSo
FNDA:0,_ZN7testing8internal16UniversalPrinterIbE5PrintERKbPSo
FNDA:0,_ZN7testing8internal16UniversalPrinterIiE5PrintERKiPSo
FNDA:0,_ZN7testing8internal16UniversalPrinterIjE5PrintERKjPSo
FNDA:0,_ZN7testing8internal16UniversalPrinterImE5PrintERKmPSo
FNF:42
FNH:0
DA:244,0
DA:248,0
DA:249,0
DA:348,0
DA:358,0
DA:359,0
DA:379,0
DA:380,0
DA:459,0
DA:461,0
DA:486,0
DA:487,0
DA:488,0
DA:505,0
DA:506,0
DA:507,0
DA:835,0
DA:844,0
DA:845,0
DA:1025,0
DA:1026,0
DA:1027,0
DA:1144,0
DA:1148,0
DA:1149,0
DA:1184,0
DA:1185,0
DA:1186,0
DA:1187,0
DA:1188,0
LF:30
LH:0
end_of_record
TN:
SF:/usr/local/include/gtest/gtest.h
FN:1374,1380,_ZN7testing8internal18CmpHelperEQFailureIbbEENS_15AssertionResultEPKcS4_RKT_RKT0_
FN:1374,1380,_ZN7testing8internal18CmpHelperEQFailureIiiEENS_15AssertionResultEPKcS4_RKT_RKT0_
FN:1374,1380,_ZN7testing8internal18CmpHelperEQFailureIijEENS_15AssertionResultEPKcS4_RKT_RKT0_
FN:1374,1380,_ZN7testing8internal18CmpHelperEQFailureIimEENS_15AssertionResultEPKcS4_RKT_RKT0_
FN:1374,1380,_ZN7testing8internal18CmpHelperEQFailureIjjEENS_15AssertionResultEPKcS4_RKT_RKT0_
FN:1374,1380,_ZN7testing8internal18CmpHelperEQFailureImiEENS_15AssertionResultEPKcS4_RKT_RKT0_
FN:1374,1380,_ZN7testing8internal18CmpHelperEQFailureImmEENS_15AssertionResultEPKcS4_RKT_RKT0_
FN:1391,1399,_ZN7testing8internal11CmpHelperEQIbbEENS_15AssertionResultEPKcS4_RKT_RKT0_
FN:1391,1399,_ZN7testing8internal11CmpHelperEQIiiEENS_15AssertionResultEPKcS4_RKT_RKT0_
FN:1391,1399,_ZN7testing8internal11CmpHelperEQIijEENS_15AssertionResultEPKcS4_RKT_RKT0_
FN:1391,1399,_ZN7testing8internal11CmpHelperEQIimEENS_15AssertionResultEPKcS4_RKT_RKT0_
FN:1391,1399,_ZN7testing8internal11CmpHelperEQIjjEENS_15AssertionResultEPKcS4_RKT_RKT0_
FN:1391,1399,_ZN7testing8internal11CmpHelperEQImiEENS_15AssertionResultEPKcS4_RKT_RKT0_
FN:1391,1399,_ZN7testing8internal11CmpHelperEQImmEENS_15AssertionResultEPKcS4_RKT_RKT0_
FN:1410,1414,_ZN7testing8internal8EqHelper7CompareIbbLPv0EEENS_15AssertionResultEPKcS6_RKT_RKT0_
FN:1410,1414,_ZN7testing8internal8EqHelper7CompareIiiLPv0EEENS_15AssertionResultEPKcS6_RKT_RKT0_
FN:1410,1414,_ZN7testing8internal8EqHelper7CompareIijLPv0EEENS_15AssertionResultEPKcS6_RKT_RKT0_
FN:1410,1414,_ZN7testing8internal8EqHelper7CompareIimLPv0EEENS_15AssertionResultEPKcS6_RKT_RKT0_
FN:1410,1414,_ZN7testing8internal8EqHelper7CompareIjjLPv0EEENS_15AssertionResultEPKcS6_RKT_RKT0_
FN:1410,1414,_ZN7testing8internal8EqHelper7CompareImiLPv0EEENS_15AssertionResultEPKcS6_RKT_RKT0_
FN:1410,1414,_ZN7testing8internal8EqHelper7CompareImmLPv0EEENS_15AssertionResultEPKcS6_RKT_RKT0_
FN:1443,1450,_ZN7testing8internal18CmpHelperOpFailureIiiEENS_15AssertionResultEPKcS4_RKT_RKT0_S4_
FN:1472,1472,_ZN7testing8internal11CmpHelperNEIiiEENS_15AssertionResultEPKcS4_RKT_RKT0_
FN:2334,2334,_Z13RUN_ALL_TESTSv
FN:255,255,_ZN7testing4Test14SetUpTestSuiteEv
FN:263,263,_ZN7testing4Test17TearDownTestSuiteEv
FN:268,268,_ZN7testing4Test16TearDownTestCaseEv
FN:269,269,_ZN7testing4Test13SetUpTestCaseEv
FN:356,356,_ZN7testing4Test5SetupEv
FNDA:0,_ZN7testing8internal18CmpHelperEQFailureIbbEENS_15AssertionResultEPKcS4_RKT_RKT0_
FNDA:0,_ZN7testing8internal18CmpHelperEQFailureIiiEENS_15AssertionResultEPKcS4_RKT_RKT0_
FNDA:0,_ZN7testing8internal18CmpHelperEQFailureIijEENS_15AssertionResultEPKcS4_RKT_RKT0_
FNDA:0,_ZN7testing8internal18CmpHelperEQFailureIimEENS_15AssertionResultEPKcS4_RKT_RKT0_
FNDA:0,_ZN7testing8internal18CmpHelperEQFailureIjjEENS_15AssertionResultEPKcS4_RKT_RKT0_
FNDA:0,_ZN7testing8internal18CmpHelperEQFailureImiEENS_15AssertionResultEPKcS4_RKT_RKT0_
FNDA:0,_ZN7testing8internal18CmpHelperEQFailureImmEENS_15AssertionResultEPKcS4_RKT_RKT0_
FNDA:15,_ZN7testing8internal11CmpHelperEQIbbEENS_15AssertionResultEPKcS4_RKT_RKT0_
FNDA:3,_ZN7testing8internal11CmpHelperEQIiiEENS_15AssertionResultEPKcS4_RKT_RKT0_
FNDA:5,_ZN7testing8internal11CmpHelperEQIijEENS_15AssertionResultEPKcS4_RKT_RKT0_
FNDA:13,_ZN7testing8internal11CmpHelperEQIimEENS_15AssertionResultEPKcS4_RKT_RKT0_
FNDA:20,_ZN7testing8internal11CmpHelperEQIjjEENS_15AssertionResultEPKcS4_RKT_RKT0_
FNDA:21,_ZN7testing8internal11CmpHelperEQImiEENS_15AssertionResultEPKcS4_RKT_RKT0_
FNDA:24,_ZN7testing8internal11CmpHelperEQImmEENS_15AssertionResultEPKcS4_RKT_RKT0_
FNDA:15,_ZN7testing8internal8EqHelper7CompareIbbLPv0EEENS_15AssertionResultEPKcS6_RKT_RKT0_
FNDA:3,_ZN7testing8internal8EqHelper7CompareIiiLPv0EEENS_15AssertionResultEPKcS6_RKT_RKT0_
FNDA:5,_ZN7testing8internal8EqHelper7CompareIijLPv0EEENS_15AssertionResultEPKcS6_RKT_RKT0_
FNDA:13,_ZN7testing8internal8EqHelper7CompareIimLPv0EEENS_15AssertionResultEPKcS6_RKT_RKT0_
FNDA:20,_ZN7testing8internal8EqHelper7CompareIjjLPv0EEENS_15AssertionResultEPKcS6_RKT_RKT0_
FNDA:21,_ZN7testing8internal8EqHelper7CompareImiLPv0EEENS_15AssertionResultEPKcS6_RKT_RKT0_
FNDA:24,_ZN7testing8internal8EqHelper7CompareImmLPv0EEENS_15AssertionResultEPKcS6_RKT_RKT0_
FNDA:0,_ZN7testing8internal18CmpHelperOpFailureIiiEENS_15AssertionResultEPKcS4_RKT_RKT0_S4_
FNDA:2,_ZN7testing8internal11CmpHelperNEIiiEENS_15AssertionResultEPKcS4_RKT_RKT0_
FNDA:5,_Z13RUN_ALL_TESTSv
FNDA:0,_ZN7testing4Test14SetUpTestSuiteEv
FNDA:0,_ZN7testing4Test17TearDownTestSuiteEv
FNDA:0,_ZN7testing4Test16TearDownTestCaseEv
FNDA:0,_ZN7testing4Test13SetUpTestCaseEv
FNDA:0,_ZN7testing4Test5SetupEv
FNF:29
FNH:16
DA:255,0
DA:263,0
DA:268,0
DA:269,0
DA:356,0
DA:1374,0
DA:1378,0
DA:1379,0
DA:1391,101
DA:1394,101
DA:1395,101
DA:1398,0
DA:1410,101
DA:1413,101
DA:1443,0
DA:1446,0
DA:1447,0
DA:1448,0
DA:1449,0
DA:1472,2
DA:2334,5
LF:21
LH:7
end_of_record
TN:
SF:/usr/local/include/gtest/internal/gtest-internal.h
FN:437,437,_ZN7testing8internal15TestFactoryBaseD0Ev
FN:437,437,_ZN7testing8internal15TestFactoryBaseD2Ev
FN:444,444,_ZN7testing8internal15TestFactoryBaseC2Ev
FN:456,456,_ZN7testing8internal15TestFactoryImplI28methods_tests_at_test_1_TestE10CreateTestEv
FN:456,456,_ZN7testing8internal15TestFactoryImplI28methods_tests_at_test_2_TestE10CreateTestEv
FN:456,456,_ZN7testing8internal15TestFactoryImplI30methods_tests_swap_test_1_TestE10CreateTestEv
FN:456,456,_ZN7testing8internal15TestFactoryImplI31methods_tests_clear_test_1_TestE10CreateTestEv
FN:456,456,_ZN7testing8internal15TestFactoryImplI31methods_tests_clear_test_2_TestE10CreateTestEv
FN:456,456,_ZN7testing8internal15TestFactoryImplI31methods_tests_erase_test_1_TestE10CreateTestEv
FN:456,456,_ZN7testing8internal15TestFactoryImplI31methods_tests_erase_test_2_TestE10CreateTestEv
FN:456,456,_ZN7testing8internal15TestFactoryImplI31methods_tests_erase_test_3_TestE10CreateTestEv
FN:456,456,_ZN7testing8internal15TestFactoryImplI31methods_tests_erase_test_4_TestE10CreateTestEv
FN:456,456,_ZN7testing8internal15TestFactoryImplI31methods_tests_erase_test_5_TestE10CreateTestEv
FN:456,456,_ZN7testing8internal15TestFactoryImplI32ctors_tests_empty_ctor_test_TestE10CreateTestEv
FN:456,456,_ZN7testing8internal15TestFactoryImplI32methods_tests_insert_test_1_TestE10CreateTestEv
FN:456,456,_ZN7testing8internal15TestFactoryImplI32methods_tests_insert_test_2_TestE10CreateTestEv
FN:456,456,_ZN7testing8internal15TestFactoryImplI32methods_tests_insert_test_3_TestE10CreateTestEv
FN:456,456,_ZN7testing8internal15TestFactoryImplI32methods_tests_insert_test_4_TestE10CreateTestEv
FN:456,456,_ZN7testing8internal15TestFactoryImplI34ctors_tests_copy_cstor_test_1_TestE10CreateTestEv
FN:456,456,_ZN7testing8internal15TestFactoryImplI34ctors_tests_copy_cstor_test_2_TestE10CreateTestEv
FN:456,456,_ZN7testing8internal15TestFactoryImplI34ctors_tests_move_cstor_test_1_TestE10CreateTestEv
FN:456,456,_ZN7testing8internal15TestFactoryImplI34ctors_tests_move_cstor_test_2_TestE10CreateTestEv
FN:456,456,_ZN7testing8internal15TestFactoryImplI35methods_tests_rehashing_test_1_TestE10CreateTestEv
FN:456,456,_ZN7testing8internal15TestFactoryImplI35operators_tests_isEqual_test_1_TestE10CreateTestEv
FN:456,456,_ZN7testing8internal15TestFactoryImplI35operators_tests_isEqual_test_2_TestE10CreateTestEv
FN:456,456,_ZN7testing8internal15TestFactoryImplI35operators_tests_isEqual_test_3_TestE10CreateTestEv
FN:456,456,_ZN7testing8internal15TestFactoryImplI36operators_tests_brackets_test_1_TestE10CreateTestEv
FN:456,456,_ZN7testing8internal15TestFactoryImplI36operators_tests_brackets_test_2_TestE10CreateTestEv
FN:456,456,_ZN7testing8internal15TestFactoryImplI38ctors_tests_capacity_cstor_test_1_TestE10CreateTestEv
FN:456,456,_ZN7testing8internal15TestFactoryImplI38ctors_tests_capacity_cstor_test_2_TestE10CreateTestEv
FN:456,456,_ZN7testing8internal15TestFactoryImplI38operators_tests_isNotEqual_test_1_TestE10CreateTestEv
FN:456,456,_ZN7testing8internal15TestFactoryImplI40methods_tests_linear_probing_test_1_TestE10CreateTestEv
FN:456,456,_ZN7testing8internal15TestFactoryImplI40methods_tests_linear_probing_test_2_TestE10CreateTestEv
FN:456,456,_ZN7testing8internal15TestFactoryImplI40methods_tests_linear_probing_test_3_TestE10CreateTestEv
FN:456,456,_ZN7testing8internal15TestFactoryImplI40methods_tests_linear_probing_test_4_TestE10CreateTestEv
FN:456,456,_ZN7testing8internal15TestFactoryImplI40methods_tests_linear_probing_test_5_TestE10CreateTestEv
FN:456,456,_ZN7testing8internal15TestFactoryImplI43operators_tests_copy_assignment_test_1_TestE10CreateTestEv
FN:456,456,_ZN7testing8internal15TestFactoryImplI43operators_tests_copy_assignment_test_2_TestE10CreateTestEv
FN:456,456,_ZN7testing8internal15TestFactoryImplI43operators_tests_copy_assignment_test_3_TestE10CreateTestEv
FN:456,456,_ZN7testing8internal15TestFactoryImplI43operators_tests_move_assignment_test_1_TestE10CreateTestEv
FN:456,456,_ZN7testing8internal15TestFactoryImplI43operators_tests_move_assignment_test_2_TestE10CreateTestEv
FN:456,456,_ZN7testing8internal15TestFactoryImplI43operators_tests_move_assignment_test_3_TestE10CreateTestEv
FN:456,456,_ZN7testing8internal15TestFactoryImplI43operators_tests_move_assignment_test_4_TestE10CreateTestEv
FN:477,478,_ZN7testing8internal12CodeLocationC2ENSt7__cxx1112basic_stringIcSt11char_traitsIcESaIcEEEi
FN:490,493,_ZN7testing8internal19GetNotDefaultOrNullEPFvvES2_
FN:505,524,_ZN7testing8internal16SuiteApiResolverINS_4TestEE19GetSetUpCaseOrSuiteEPKci
FN:526,545,_ZN7testing8internal16SuiteApiResolverINS_4TestEE22GetTearDownCaseOrSuiteEPKci
FN:837,837,_ZN7testing8internal14TrueWithStringC2Ev
FN:840,840,_ZNK7testing8internal14TrueWithStringcvbEv
FNDA:0,_ZN7testing8internal15TestFactoryBaseD0Ev
FNDA:116,_ZN7testing8internal15TestFactoryBaseD2Ev
FNDA:116,_ZN7testing8internal15TestFactoryBaseC2Ev
FNDA:1,_ZN7testing8internal15TestFactoryImplI28methods_tests_at_test_1_TestE10CreateTestEv
FNDA:1,_ZN7testing8internal15TestFactoryImplI28methods_tests_at_test_2_TestE10CreateTestEv
FNDA:1,_ZN7testing8internal15TestFactoryImplI30methods_tests_swap_test_1_TestE10CreateTestEv
FNDA:1,_ZN7testing8internal15TestFactoryImplI31methods_tests_clear_test_1_TestE10CreateTestEv
FNDA:1,_ZN7testing8internal15TestFactoryImplI31methods_tests_clear_test_2_TestE10CreateTestEv
FNDA:1,_ZN7testing8internal15TestFactoryImplI31methods_tests_erase_test_1_TestE10CreateTestEv
FNDA:1,_ZN7testing8internal15TestFactoryImplI31methods_tests_erase_test_2_TestE10CreateTestEv
FNDA:1,_ZN7testing8internal15TestFactoryImplI31methods_tests_erase_test_3_TestE10CreateTestEv
FNDA:1,_ZN7testing8internal15TestFactoryImplI31methods_tests_erase_test_4_TestE10CreateTestEv
FNDA:1,_ZN7testing8internal15TestFactoryImplI31methods_tests_erase_test_5_TestE10CreateTestEv
FNDA:5,_ZN7testing8internal15TestFactoryImplI32ctors_tests_empty_ctor_test_TestE10CreateTestEv
FNDA:1,_ZN7testing8internal15TestFactoryImplI32methods_tests_insert_test_1_TestE10CreateTestEv
FNDA:1,_ZN7testing8internal15TestFactoryImplI32methods_tests_insert_test_2_TestE10CreateTestEv
FNDA:1,_ZN7testing8internal15TestFactoryImplI32methods_tests_insert_test_3_TestE10CreateTestEv
FNDA:1,_ZN7testing8internal15TestFactoryImplI32methods_tests_insert_test_4_TestE10CreateTestEv
FNDA:5,_ZN7testing8internal15TestFactoryImplI34ctors_tests_copy_cstor_test_1_TestE10CreateTestEv
FNDA:5,_ZN7testing8internal15TestFactoryImplI34ctors_tests_copy_cstor_test_2_TestE10CreateTestEv
FNDA:5,_ZN7testing8internal15TestFactoryImplI34ctors_tests_move_cstor_test_1_TestE10CreateTestEv
FNDA:5,_ZN7testing8internal15TestFactoryImplI34ctors_tests_move_cstor_test_2_TestE10CreateTestEv
FNDA:1,_ZN7testing8internal15TestFactoryImplI35methods_tests_rehashing_test_1_TestE10CreateTestEv
FNDA:3,_ZN7testing8internal15TestFactoryImplI35operators_tests_isEqual_test_1_TestE10CreateTestEv
FNDA:3,_ZN7testing8internal15TestFactoryImplI35operators_tests_isEqual_test_2_TestE10CreateTestEv
FNDA:3,_ZN7testing8internal15TestFactoryImplI35operators_tests_isEqual_test_3_TestE10CreateTestEv
FNDA:3,_ZN7testing8internal15TestFactoryImplI36operators_tests_brackets_test_1_TestE10CreateTestEv
FNDA:3,_ZN7testing8internal15TestFactoryImplI36operators_tests_brackets_test_2_TestE10CreateTestEv
FNDA:5,_ZN7testing8internal15TestFactoryImplI38ctors_tests_capacity_cstor_test_1_TestE10CreateTestEv
FNDA:5,_ZN7testing8internal15TestFactoryImplI38ctors_tests_capacity_cstor_test_2_TestE10CreateTestEv
FNDA:3,_ZN7testing8internal15TestFactoryImplI38operators_tests_isNotEqual_test_1_TestE10CreateTestEv
FNDA:1,_ZN7testing8internal15TestFactoryImplI40methods_tests_linear_probing_test_1_TestE10CreateTestEv
FNDA:1,_ZN7testing8internal15TestFactoryImplI40methods_tests_linear_probing_test_2_TestE10CreateTestEv
FNDA:1,_ZN7testing8internal15TestFactoryImplI40methods_tests_linear_probing_test_3_TestE10CreateTestEv
FNDA:1,_ZN7testing8internal15TestFactoryImplI40methods_tests_linear_probing_test_4_TestE10CreateTestEv
FNDA:1,_ZN7testing8internal15TestFactoryImplI40methods_tests_linear_probing_test_5_TestE10CreateTestEv
FNDA:3,_ZN7testing8internal15TestFactoryImplI43operators_tests_copy_assignment_test_1_TestE10CreateTestEv
FNDA:3,_ZN7testing8internal15TestFactoryImplI43operators_tests_copy_assignment_test_2_TestE10CreateTestEv
FNDA:3,_ZN7testing8internal15TestFactoryImplI43operators_tests_copy_assignment_test_3_TestE10CreateTestEv
FNDA:3,_ZN7testing8internal15TestFactoryImplI43operators_tests_move_assignment_test_1_TestE10CreateTestEv
FNDA:3,_ZN7testing8internal15TestFactoryImplI43operators_tests_move_assignment_test_2_TestE10CreateTestEv
FNDA:3,_ZN7testing8internal15TestFactoryImplI43operators_tests_move_assignment_test_3_TestE10CreateTestEv
FNDA:3,_ZN7testing8internal15TestFactoryImplI43operators_tests_move_assignment_test_4_TestE10CreateTestEv
FNDA:116,_ZN7testing8internal12CodeLocationC2ENSt7__cxx1112basic_stringIcSt11char_traitsIcESaIcEEEi
FNDA:464,_ZN7testing8internal19GetNotDefaultOrNullEPFvvES2_
FNDA:116,_ZN7testing8internal16SuiteApiResolverINS_4TestEE19GetSetUpCaseOrSuiteEPKci
FNDA:116,_ZN7testing8internal16SuiteApiResolverINS_4TestEE22GetTearDownCaseOrSuiteEPKci
FNDA:4,_ZN7testing8internal14TrueWithStringC2Ev
FNDA:4,_ZNK7testing8internal14TrueWithStringcvbEv
FNF:49
FNH:48
DA:437,116
DA:444,116
DA:456,94
DA:477,116
DA:478,116
DA:490,464
DA:492,464
DA:505,116
DA:509,116
DA:511,116
DA:513,116
DA:516,0
DA:518,116
DA:526,116
DA:530,116
DA:532,116
DA:534,116
DA:537,0
DA:539,116
DA:837,4
DA:840,4
LF:21
LH:19
end_of_record
TN:
SF:/usr/local/include/gtest/internal/gtest-port.h
FN:1082,1082,_ZN7testing8internal8GTestLog9GetStreamEv
FNDA:0,_ZN7testing8internal8GTestLog9GetStreamEv
FNF:1
FNH:0
DA:1082,0
LF:1
LH:0
end_of_record
TN:
SF:/usr/local/include/gtest/internal/gtest-type-util.h
FN:61,87,_ZN7testing8internal31CanonicalizeForStdLibVersioningENSt7__cxx1112basic_stringIcSt11char_traitsIcESaIcEEE
FN:91,121,_ZN7testing8internal11GetTypeNameB5cxx11ERKSt9type_info
FNDA:0,_ZN7testing8internal31CanonicalizeForStdLibVersioningENSt7__cxx1112basic_stringIcSt11char_traitsIcESaIcEEE
FNDA:0,_ZN7testing8internal11GetTypeNameB5cxx11ERKSt9type_info
FNF:2
FNH:0
DA:61,0
DA:63,0
DA:64,0
DA:65,0
DA:67,0
DA:74,0
DA:75,0
DA:78,0
DA:79,0
DA:80,0
DA:83,0
DA:84,0
DA:86,0
DA:91,0
DA:92,0
DA:94,0
DA:100,0
DA:101,0
DA:102,0
DA:103,0
DA:121,0
LF:21
LH:0
end_of_record
